
kernel.elf:     file format elf32-littlearm


Disassembly of section .text:

00008000 <_start>:
    8000:	e59ff018 	ldr	pc, [pc, #24]	; 8020 <reset_handler>
    8004:	e59ff018 	ldr	pc, [pc, #24]	; 8024 <undefined_handler>
    8008:	e59ff018 	ldr	pc, [pc, #24]	; 8028 <swi_handler>
    800c:	e59ff018 	ldr	pc, [pc, #24]	; 802c <prefetch_handler>
    8010:	e59ff018 	ldr	pc, [pc, #24]	; 8030 <data_handler>
    8014:	e59ff018 	ldr	pc, [pc, #24]	; 8034 <unused_handler>
    8018:	e59ff018 	ldr	pc, [pc, #24]	; 8038 <irq_handler>
    801c:	e59ff018 	ldr	pc, [pc, #24]	; 803c <fiq_handler>

00008020 <reset_handler>:
    8020:	00008040 	andeq	r8, r0, r0, asr #32

00008024 <undefined_handler>:
    8024:	00008084 	andeq	r8, r0, r4, lsl #1

00008028 <swi_handler>:
    8028:	00008088 	andeq	r8, r0, r8, lsl #1

0000802c <prefetch_handler>:
    802c:	0000808c 	andeq	r8, r0, ip, lsl #1

00008030 <data_handler>:
    8030:	00008090 	muleq	r0, r0, r0

00008034 <unused_handler>:
    8034:	00008094 	muleq	r0, r4, r0

00008038 <irq_handler>:
    8038:	000080cc 	andeq	r8, r0, ip, asr #1

0000803c <fiq_handler>:
    803c:	00008098 	muleq	r0, r8, r0

00008040 <reset>:
    8040:	e3a00902 	mov	r0, #32768	; 0x8000
    8044:	e3a01000 	mov	r1, #0
    8048:	e8b003fc 	ldm	r0!, {r2, r3, r4, r5, r6, r7, r8, r9}
    804c:	e8a103fc 	stmia	r1!, {r2, r3, r4, r5, r6, r7, r8, r9}
    8050:	e8b003fc 	ldm	r0!, {r2, r3, r4, r5, r6, r7, r8, r9}
    8054:	e8a103fc 	stmia	r1!, {r2, r3, r4, r5, r6, r7, r8, r9}
    8058:	e3a000d1 	mov	r0, #209	; 0xd1
    805c:	e121f000 	msr	CPSR_c, r0
    8060:	e3a0d90e 	mov	sp, #229376	; 0x38000
    8064:	e3a000d2 	mov	r0, #210	; 0xd2
    8068:	e121f000 	msr	CPSR_c, r0
    806c:	e3a0d701 	mov	sp, #262144	; 0x40000
    8070:	e3a000d3 	mov	r0, #211	; 0xd3
    8074:	e121f000 	msr	CPSR_c, r0
    8078:	e3a0d912 	mov	sp, #294912	; 0x48000
    807c:	eb000025 	bl	8118 <kmain>

00008080 <hang>:
    8080:	eafffffe 	b	8080 <hang>

00008084 <undefined>:
    8084:	eafffffe 	b	8084 <undefined>

00008088 <swi>:
    8088:	eafffffe 	b	8088 <swi>

0000808c <prefetch>:
    808c:	eafffffe 	b	808c <prefetch>

00008090 <data>:
    8090:	eafffffe 	b	8090 <data>

00008094 <unused>:
    8094:	eafffffe 	b	8094 <unused>

00008098 <fiq>:
    8098:	eafffffe 	b	8098 <fiq>

0000809c <PUT32>:
    809c:	e5801000 	str	r1, [r0]
    80a0:	e12fff1e 	bx	lr

000080a4 <PUT16>:
    80a4:	e1c010b0 	strh	r1, [r0]
    80a8:	e12fff1e 	bx	lr

000080ac <PUT8>:
    80ac:	e5c01000 	strb	r1, [r0]
    80b0:	e12fff1e 	bx	lr

000080b4 <GET32>:
    80b4:	e5900000 	ldr	r0, [r0]
    80b8:	e12fff1e 	bx	lr

000080bc <GETPC>:
    80bc:	e1a0000e 	mov	r0, lr
    80c0:	e12fff1e 	bx	lr

000080c4 <BRANCHTO>:
    80c4:	e12fff10 	bx	r0

000080c8 <dummy>:
    80c8:	e12fff1e 	bx	lr

000080cc <irq>:
    80cc:	eafffffe 	b	80cc <irq>

000080d0 <funcA>:
    80d0:	e52de004 	push	{lr}		; (str lr, [sp, #-4]!)
    80d4:	e24dd00c 	sub	sp, sp, #12
    80d8:	e3a03000 	mov	r3, #0
    80dc:	e58d3004 	str	r3, [sp, #4]
    80e0:	e59d3004 	ldr	r3, [sp, #4]
    80e4:	e2833001 	add	r3, r3, #1
    80e8:	e58d3004 	str	r3, [sp, #4]
    80ec:	eb0000ec 	bl	84a4 <ctx_switch>
    80f0:	eafffffa 	b	80e0 <funcA+0x10>

000080f4 <funcB>:
    80f4:	e52de004 	push	{lr}		; (str lr, [sp, #-4]!)
    80f8:	e24dd00c 	sub	sp, sp, #12
    80fc:	e3a03001 	mov	r3, #1
    8100:	e58d3004 	str	r3, [sp, #4]
    8104:	e59d3004 	ldr	r3, [sp, #4]
    8108:	e2833002 	add	r3, r3, #2
    810c:	e58d3004 	str	r3, [sp, #4]
    8110:	eb0000e3 	bl	84a4 <ctx_switch>
    8114:	eafffffa 	b	8104 <funcB+0x10>

00008118 <kmain>:
    8118:	e92d4008 	push	{r3, lr}
    811c:	eb00007b 	bl	8310 <init_hw>
    8120:	e59f002c 	ldr	r0, [pc, #44]	; 8154 <kmain+0x3c>
    8124:	e3a01000 	mov	r1, #0
    8128:	e3a02b01 	mov	r2, #1024	; 0x400
    812c:	eb0000dd 	bl	84a8 <create_process>
    8130:	e59f0020 	ldr	r0, [pc, #32]	; 8158 <kmain+0x40>
    8134:	e3a01000 	mov	r1, #0
    8138:	e3a02b01 	mov	r2, #1024	; 0x400
    813c:	eb0000d9 	bl	84a8 <create_process>
    8140:	eb0000d6 	bl	84a0 <start_sched>
    8144:	eb0000d6 	bl	84a4 <ctx_switch>
    8148:	e3a03000 	mov	r3, #0
    814c:	e1a00003 	mov	r0, r3
    8150:	e8bd8008 	pop	{r3, pc}
    8154:	000080f4 	strdeq	r8, [r0], -r4
    8158:	000080d0 	ldrdeq	r8, [r0], -r0

0000815c <phyAlloc_alloc>:
    815c:	e92d0030 	push	{r4, r5}
    8160:	e24dd008 	sub	sp, sp, #8
    8164:	e58d0004 	str	r0, [sp, #4]
    8168:	e59f3094 	ldr	r3, [pc, #148]	; 8204 <phyAlloc_alloc+0xa8>
    816c:	e5934000 	ldr	r4, [r3]
    8170:	e59f508c 	ldr	r5, [pc, #140]	; 8204 <phyAlloc_alloc+0xa8>
    8174:	ea000001 	b	8180 <phyAlloc_alloc+0x24>
    8178:	e1a05004 	mov	r5, r4
    817c:	e5944000 	ldr	r4, [r4]
    8180:	e3540000 	cmp	r4, #0
    8184:	0a000003 	beq	8198 <phyAlloc_alloc+0x3c>
    8188:	e5942004 	ldr	r2, [r4, #4]
    818c:	e59d3004 	ldr	r3, [sp, #4]
    8190:	e1520003 	cmp	r2, r3
    8194:	3afffff7 	bcc	8178 <phyAlloc_alloc+0x1c>
    8198:	e3540000 	cmp	r4, #0
    819c:	1a000011 	bne	81e8 <phyAlloc_alloc+0x8c>
    81a0:	e59f3060 	ldr	r3, [pc, #96]	; 8208 <phyAlloc_alloc+0xac>
    81a4:	e5934000 	ldr	r4, [r3]
    81a8:	e59f3058 	ldr	r3, [pc, #88]	; 8208 <phyAlloc_alloc+0xac>
    81ac:	e5932000 	ldr	r2, [r3]
    81b0:	e59d3004 	ldr	r3, [sp, #4]
    81b4:	e2833003 	add	r3, r3, #3
    81b8:	e3c33003 	bic	r3, r3, #3
    81bc:	e0822003 	add	r2, r2, r3
    81c0:	e59f3040 	ldr	r3, [pc, #64]	; 8208 <phyAlloc_alloc+0xac>
    81c4:	e5832000 	str	r2, [r3]
    81c8:	e59f3038 	ldr	r3, [pc, #56]	; 8208 <phyAlloc_alloc+0xac>
    81cc:	e5932000 	ldr	r2, [r3]
    81d0:	e59f3034 	ldr	r3, [pc, #52]	; 820c <phyAlloc_alloc+0xb0>
    81d4:	e5933000 	ldr	r3, [r3]
    81d8:	e1520003 	cmp	r2, r3
    81dc:	9a000003 	bls	81f0 <phyAlloc_alloc+0x94>
    81e0:	e3a03000 	mov	r3, #0
    81e4:	ea000002 	b	81f4 <phyAlloc_alloc+0x98>
    81e8:	e5943000 	ldr	r3, [r4]
    81ec:	e5853000 	str	r3, [r5]
    81f0:	e1a03004 	mov	r3, r4
    81f4:	e1a00003 	mov	r0, r3
    81f8:	e28dd008 	add	sp, sp, #8
    81fc:	e8bd0030 	pop	{r4, r5}
    8200:	e12fff1e 	bx	lr
    8204:	00008578 	andeq	r8, r0, r8, ror r5
    8208:	0000857c 	andeq	r8, r0, ip, ror r5
    820c:	00008580 	andeq	r8, r0, r0, lsl #11

00008210 <phyAlloc_free>:
    8210:	e52d4004 	push	{r4}		; (str r4, [sp, #-4]!)
    8214:	e24dd00c 	sub	sp, sp, #12
    8218:	e58d0004 	str	r0, [sp, #4]
    821c:	e58d1000 	str	r1, [sp]
    8220:	e59d4004 	ldr	r4, [sp, #4]
    8224:	e59d3000 	ldr	r3, [sp]
    8228:	e2833003 	add	r3, r3, #3
    822c:	e3c33003 	bic	r3, r3, #3
    8230:	e5843004 	str	r3, [r4, #4]
    8234:	e59f3018 	ldr	r3, [pc, #24]	; 8254 <phyAlloc_free+0x44>
    8238:	e5933000 	ldr	r3, [r3]
    823c:	e5843000 	str	r3, [r4]
    8240:	e59f300c 	ldr	r3, [pc, #12]	; 8254 <phyAlloc_free+0x44>
    8244:	e5834000 	str	r4, [r3]
    8248:	e28dd00c 	add	sp, sp, #12
    824c:	e8bd0010 	pop	{r4}
    8250:	e12fff1e 	bx	lr
    8254:	00008578 	andeq	r8, r0, r8, ror r5

00008258 <phyAlloc_init>:
    8258:	e24dd008 	sub	sp, sp, #8
    825c:	e58d0004 	str	r0, [sp, #4]
    8260:	e58d1000 	str	r1, [sp]
    8264:	e59f3020 	ldr	r3, [pc, #32]	; 828c <phyAlloc_init+0x34>
    8268:	e59d2004 	ldr	r2, [sp, #4]
    826c:	e5832000 	str	r2, [r3]
    8270:	e59d2004 	ldr	r2, [sp, #4]
    8274:	e59d3000 	ldr	r3, [sp]
    8278:	e0822003 	add	r2, r2, r3
    827c:	e59f300c 	ldr	r3, [pc, #12]	; 8290 <phyAlloc_init+0x38>
    8280:	e5832000 	str	r2, [r3]
    8284:	e28dd008 	add	sp, sp, #8
    8288:	e12fff1e 	bx	lr
    828c:	0000857c 	andeq	r8, r0, ip, ror r5
    8290:	00008580 	andeq	r8, r0, r0, lsl #11

00008294 <set_tick_and_enable_timer>:
    8294:	e52de004 	push	{lr}		; (str lr, [sp, #-4]!)
    8298:	e24dd00c 	sub	sp, sp, #12
    829c:	e59f0030 	ldr	r0, [pc, #48]	; 82d4 <set_tick_and_enable_timer+0x40>
    82a0:	ebffff83 	bl	80b4 <GET32>
    82a4:	e58d0004 	str	r0, [sp, #4]
    82a8:	e59d3004 	ldr	r3, [sp, #4]
    82ac:	e2833702 	add	r3, r3, #524288	; 0x80000
    82b0:	e58d3004 	str	r3, [sp, #4]
    82b4:	e59f001c 	ldr	r0, [pc, #28]	; 82d8 <set_tick_and_enable_timer+0x44>
    82b8:	e59d1004 	ldr	r1, [sp, #4]
    82bc:	ebffff76 	bl	809c <PUT32>
    82c0:	e59f0014 	ldr	r0, [pc, #20]	; 82dc <set_tick_and_enable_timer+0x48>
    82c4:	e3a01002 	mov	r1, #2
    82c8:	ebffff73 	bl	809c <PUT32>
    82cc:	e28dd00c 	add	sp, sp, #12
    82d0:	e8bd8000 	pop	{pc}
    82d4:	20003004 	andcs	r3, r0, r4
    82d8:	20003010 	andcs	r3, r0, r0, lsl r0
    82dc:	20003000 	andcs	r3, r0, r0

000082e0 <led_off>:
    82e0:	e92d4008 	push	{r3, lr}
    82e4:	e59f0008 	ldr	r0, [pc, #8]	; 82f4 <led_off+0x14>
    82e8:	e3a01801 	mov	r1, #65536	; 0x10000
    82ec:	ebffff6a 	bl	809c <PUT32>
    82f0:	e8bd8008 	pop	{r3, pc}
    82f4:	2020001c 	eorcs	r0, r0, ip, lsl r0

000082f8 <led_on>:
    82f8:	e92d4008 	push	{r3, lr}
    82fc:	e59f0008 	ldr	r0, [pc, #8]	; 830c <led_on+0x14>
    8300:	e3a01801 	mov	r1, #65536	; 0x10000
    8304:	ebffff64 	bl	809c <PUT32>
    8308:	e8bd8008 	pop	{r3, pc}
    830c:	20200028 	eorcs	r0, r0, r8, lsr #32

00008310 <init_hw>:
    8310:	e52de004 	push	{lr}		; (str lr, [sp, #-4]!)
    8314:	e24dd00c 	sub	sp, sp, #12
    8318:	e59f0098 	ldr	r0, [pc, #152]	; 83b8 <init_hw+0xa8>
    831c:	ebffff64 	bl	80b4 <GET32>
    8320:	e58d0004 	str	r0, [sp, #4]
    8324:	e59d3004 	ldr	r3, [sp, #4]
    8328:	e3c33707 	bic	r3, r3, #1835008	; 0x1c0000
    832c:	e58d3004 	str	r3, [sp, #4]
    8330:	e59d3004 	ldr	r3, [sp, #4]
    8334:	e3833701 	orr	r3, r3, #262144	; 0x40000
    8338:	e58d3004 	str	r3, [sp, #4]
    833c:	e59f0074 	ldr	r0, [pc, #116]	; 83b8 <init_hw+0xa8>
    8340:	e59d1004 	ldr	r1, [sp, #4]
    8344:	ebffff54 	bl	809c <PUT32>
    8348:	e59f006c 	ldr	r0, [pc, #108]	; 83bc <init_hw+0xac>
    834c:	e3a01801 	mov	r1, #65536	; 0x10000
    8350:	ebffff51 	bl	809c <PUT32>
    8354:	e59f0064 	ldr	r0, [pc, #100]	; 83c0 <init_hw+0xb0>
    8358:	ebffff55 	bl	80b4 <GET32>
    835c:	e58d0000 	str	r0, [sp]
    8360:	e59d3000 	ldr	r3, [sp]
    8364:	e2833702 	add	r3, r3, #524288	; 0x80000
    8368:	e58d3000 	str	r3, [sp]
    836c:	e59f0050 	ldr	r0, [pc, #80]	; 83c4 <init_hw+0xb4>
    8370:	e59d1000 	ldr	r1, [sp]
    8374:	ebffff48 	bl	809c <PUT32>
    8378:	e59f0048 	ldr	r0, [pc, #72]	; 83c8 <init_hw+0xb8>
    837c:	e3a01002 	mov	r1, #2
    8380:	ebffff45 	bl	809c <PUT32>
    8384:	e59f0040 	ldr	r0, [pc, #64]	; 83cc <init_hw+0xbc>
    8388:	e3a01002 	mov	r1, #2
    838c:	ebffff42 	bl	809c <PUT32>
    8390:	e92d0001 	push	{r0}
    8394:	e10f0000 	mrs	r0, CPSR
    8398:	e3800080 	orr	r0, r0, #128	; 0x80
    839c:	e121f000 	msr	CPSR_c, r0
    83a0:	e8bd0001 	pop	{r0}
    83a4:	e3a00805 	mov	r0, #327680	; 0x50000
    83a8:	e3a01a32 	mov	r1, #204800	; 0x32000
    83ac:	ebffffa9 	bl	8258 <phyAlloc_init>
    83b0:	e28dd00c 	add	sp, sp, #12
    83b4:	e8bd8000 	pop	{pc}
    83b8:	20200004 	eorcs	r0, r0, r4
    83bc:	2020001c 	eorcs	r0, r0, ip, lsl r0
    83c0:	20003004 	andcs	r3, r0, r4
    83c4:	20003010 	andcs	r3, r0, r0, lsl r0
    83c8:	20003000 	andcs	r3, r0, r0
    83cc:	2000b210 	andcs	fp, r0, r0, lsl r2

000083d0 <init_ctx>:
    83d0:	e52de004 	push	{lr}		; (str lr, [sp, #-4]!)
    83d4:	e24dd014 	sub	sp, sp, #20
    83d8:	e58d000c 	str	r0, [sp, #12]
    83dc:	e58d1008 	str	r1, [sp, #8]
    83e0:	e58d2004 	str	r2, [sp, #4]
    83e4:	e59d0004 	ldr	r0, [sp, #4]
    83e8:	ebffff5b 	bl	815c <phyAlloc_alloc>
    83ec:	e1a03000 	mov	r3, r0
    83f0:	e1a02003 	mov	r2, r3
    83f4:	e59d3004 	ldr	r3, [sp, #4]
    83f8:	e0823003 	add	r3, r2, r3
    83fc:	e2432004 	sub	r2, r3, #4
    8400:	e59d300c 	ldr	r3, [sp, #12]
    8404:	e5832000 	str	r2, [r3]
    8408:	e59d2008 	ldr	r2, [sp, #8]
    840c:	e59d300c 	ldr	r3, [sp, #12]
    8410:	e5832004 	str	r2, [r3, #4]
    8414:	e28dd014 	add	sp, sp, #20
    8418:	e8bd8000 	pop	{pc}

0000841c <init_pcb>:
    841c:	e52de004 	push	{lr}		; (str lr, [sp, #-4]!)
    8420:	e24dd014 	sub	sp, sp, #20
    8424:	e58d000c 	str	r0, [sp, #12]
    8428:	e58d1008 	str	r1, [sp, #8]
    842c:	e58d2004 	str	r2, [sp, #4]
    8430:	e58d3000 	str	r3, [sp]
    8434:	e59f3060 	ldr	r3, [pc, #96]	; 849c <init_pcb+0x80>
    8438:	e5933000 	ldr	r3, [r3]
    843c:	e59d200c 	ldr	r2, [sp, #12]
    8440:	e5823000 	str	r3, [r2]
    8444:	e2832001 	add	r2, r3, #1
    8448:	e59f304c 	ldr	r3, [pc, #76]	; 849c <init_pcb+0x80>
    844c:	e5832000 	str	r2, [r3]
    8450:	e59d300c 	ldr	r3, [sp, #12]
    8454:	e3a02001 	mov	r2, #1
    8458:	e5c32004 	strb	r2, [r3, #4]
    845c:	e59d2008 	ldr	r2, [sp, #8]
    8460:	e59d300c 	ldr	r3, [sp, #12]
    8464:	e583200c 	str	r2, [r3, #12]
    8468:	e59d0000 	ldr	r0, [sp]
    846c:	ebffff3a 	bl	815c <phyAlloc_alloc>
    8470:	e1a03000 	mov	r3, r0
    8474:	e1a02003 	mov	r2, r3
    8478:	e59d3000 	ldr	r3, [sp]
    847c:	e0822003 	add	r2, r2, r3
    8480:	e59d300c 	ldr	r3, [sp, #12]
    8484:	e5832008 	str	r2, [r3, #8]
    8488:	e59d300c 	ldr	r3, [sp, #12]
    848c:	e59d2004 	ldr	r2, [sp, #4]
    8490:	e5832014 	str	r2, [r3, #20]
    8494:	e28dd014 	add	sp, sp, #20
    8498:	e8bd8000 	pop	{pc}
    849c:	00008584 	andeq	r8, r0, r4, lsl #11

000084a0 <start_sched>:
    84a0:	e12fff1e 	bx	lr

000084a4 <ctx_switch>:
    84a4:	e12fff1e 	bx	lr

000084a8 <create_process>:
    84a8:	e52de004 	push	{lr}		; (str lr, [sp, #-4]!)
    84ac:	e24dd01c 	sub	sp, sp, #28
    84b0:	e58d000c 	str	r0, [sp, #12]
    84b4:	e58d1008 	str	r1, [sp, #8]
    84b8:	e58d2004 	str	r2, [sp, #4]
    84bc:	e3a00018 	mov	r0, #24
    84c0:	ebffff25 	bl	815c <phyAlloc_alloc>
    84c4:	e1a03000 	mov	r3, r0
    84c8:	e58d3014 	str	r3, [sp, #20]
    84cc:	e59f3040 	ldr	r3, [pc, #64]	; 8514 <create_process+0x6c>
    84d0:	e5933000 	ldr	r3, [r3]
    84d4:	e59d2014 	ldr	r2, [sp, #20]
    84d8:	e5832010 	str	r2, [r3, #16]
    84dc:	e59f3034 	ldr	r3, [pc, #52]	; 8518 <create_process+0x70>
    84e0:	e5932000 	ldr	r2, [r3]
    84e4:	e59d3014 	ldr	r3, [sp, #20]
    84e8:	e5832010 	str	r2, [r3, #16]
    84ec:	e59f3020 	ldr	r3, [pc, #32]	; 8514 <create_process+0x6c>
    84f0:	e59d2014 	ldr	r2, [sp, #20]
    84f4:	e5832000 	str	r2, [r3]
    84f8:	e59d0014 	ldr	r0, [sp, #20]
    84fc:	e59d100c 	ldr	r1, [sp, #12]
    8500:	e59d2008 	ldr	r2, [sp, #8]
    8504:	e59d3004 	ldr	r3, [sp, #4]
    8508:	ebffffc3 	bl	841c <init_pcb>
    850c:	e28dd01c 	add	sp, sp, #28
    8510:	e8bd8000 	pop	{pc}
    8514:	00008588 	andeq	r8, r0, r8, lsl #11
    8518:	0000858c 	andeq	r8, r0, ip, lsl #11

0000851c <switch_to>:
    851c:	e1a03000 	mov	r3, r0
    8520:	e92d1fff 	push	{r0, r1, r2, r3, r4, r5, r6, r7, r8, r9, sl, fp, ip}
    8524:	e59f2038 	ldr	r2, [pc, #56]	; 8564 <switch_to+0x48>
    8528:	e5922000 	ldr	r2, [r2]
    852c:	e1a0100d 	mov	r1, sp
    8530:	e5821000 	str	r1, [r2]
    8534:	e59f2028 	ldr	r2, [pc, #40]	; 8564 <switch_to+0x48>
    8538:	e5922000 	ldr	r2, [r2]
    853c:	e1a0100e 	mov	r1, lr
    8540:	e5821004 	str	r1, [r2, #4]
    8544:	e59f2018 	ldr	r2, [pc, #24]	; 8564 <switch_to+0x48>
    8548:	e5823000 	str	r3, [r2]
    854c:	e5932000 	ldr	r2, [r3]
    8550:	e1a0d002 	mov	sp, r2
    8554:	e5933004 	ldr	r3, [r3, #4]
    8558:	e1a0e003 	mov	lr, r3
    855c:	e8bd1fff 	pop	{r0, r1, r2, r3, r4, r5, r6, r7, r8, r9, sl, fp, ip}
    8560:	e12fff1e 	bx	lr
    8564:	00008590 	muleq	r0, r0, r5

Disassembly of section .bss:

00008568 <idprocess>:
    8568:	00000000 	andeq	r0, r0, r0

0000856c <last_process>:
    856c:	00000000 	andeq	r0, r0, r0

00008570 <first_process>:
    8570:	00000000 	andeq	r0, r0, r0

00008574 <current_ctx>:
    8574:	00000000 	andeq	r0, r0, r0

00008578 <freelist>:
    8578:	00000000 	andeq	r0, r0, r0

0000857c <top>:
    857c:	00000000 	andeq	r0, r0, r0

00008580 <heap_limit>:
    8580:	00000000 	andeq	r0, r0, r0

00008584 <idprocess>:
    8584:	00000000 	andeq	r0, r0, r0

00008588 <last_process>:
    8588:	00000000 	andeq	r0, r0, r0

0000858c <first_process>:
    858c:	00000000 	andeq	r0, r0, r0

00008590 <current_ctx>:
    8590:	00000000 	andeq	r0, r0, r0

00008594 <current_process>:
    8594:	00000000 	andeq	r0, r0, r0

Disassembly of section .ARM.attributes:

00000000 <.ARM.attributes>:
   0:	00003141 	andeq	r3, r0, r1, asr #2
   4:	61656100 	cmnvs	r5, r0, lsl #2
   8:	01006962 	tsteq	r0, r2, ror #18
   c:	00000027 	andeq	r0, r0, r7, lsr #32
  10:	005a3605 	subseq	r3, sl, r5, lsl #12
  14:	01080706 	tsteq	r8, r6, lsl #14
  18:	020a0109 	andeq	r0, sl, #1073741826	; 0x40000002
  1c:	01140412 	tsteq	r4, r2, lsl r4
  20:	03170115 	tsteq	r7, #1073741829	; 0x40000005
  24:	011a0118 	tsteq	sl, r8, lsl r1
  28:	011c031b 	tsteq	ip, fp, lsl r3
  2c:	012c0122 	teqeq	ip, r2, lsr #2
  30:	Address 0x0000000000000030 is out of bounds.


Disassembly of section .comment:

00000000 <.comment>:
   0:	3a434347 	bcc	10d0d24 <__bss_end+0x10c878c>
   4:	4e472820 	cdpmi	8, 4, cr2, cr7, cr0, {1}
   8:	34202955 	strtcc	r2, [r0], #-2389	; 0x955
   c:	312e372e 	teqcc	lr, lr, lsr #14
	...

Disassembly of section .debug_line:

00000000 <.debug_line>:
   0:	00000061 	andeq	r0, r0, r1, rrx
   4:	00200002 	eoreq	r0, r0, r2
   8:	01020000 	mrseq	r0, (UNDEF: 2)
   c:	000d0efb 	strdeq	r0, [sp], -fp
  10:	01010101 	tsteq	r1, r1, lsl #2
  14:	01000000 	mrseq	r0, (UNDEF: 0)
  18:	00010000 	andeq	r0, r1, r0
  1c:	74636576 	strbtvc	r6, [r3], #-1398	; 0x576
  20:	2e73726f 	cdpcs	2, 7, cr7, cr3, cr15, {3}
  24:	00000073 	andeq	r0, r0, r3, ror r0
  28:	05000000 	streq	r0, [r0, #-0]
  2c:	00800002 	addeq	r0, r0, r2
  30:	2f2f1900 	svccs	0x002f1900
  34:	2f2f2f2f 	svccs	0x002f2f2f
  38:	080b032f 	stmdaeq	fp, {r0, r1, r2, r3, r5, r8, r9}
  3c:	2f2f2f20 	svccs	0x002f2f20
  40:	2f322f2f 	svccs	0x00322f2f
  44:	2f2f322f 	svccs	0x002f322f
  48:	302f2f31 	eorcc	r2, pc, r1, lsr pc	; <UNPREDICTABLE>
  4c:	2f2f2f30 	svccs	0x002f2f30
  50:	322f2f2f 	eorcc	r2, pc, #188	; 0xbc
  54:	322f322f 	eorcc	r3, pc, #-268435454	; 0xf0000002
  58:	322f322f 	eorcc	r3, pc, #-268435454	; 0xf0000002
  5c:	3032322f 	eorscc	r3, r2, pc, lsr #4
  60:	01000202 	tsteq	r0, r2, lsl #4
  64:	00005401 	andeq	r5, r0, r1, lsl #8
  68:	2a000200 	bcs	870 <_start-0x7790>
  6c:	02000000 	andeq	r0, r0, #0
  70:	0d0efb01 	vstreq	d15, [lr, #-4]
  74:	01010100 	mrseq	r0, (UNDEF: 17)
  78:	00000001 	andeq	r0, r0, r1
  7c:	01000001 	tsteq	r0, r1
  80:	72656b00 	rsbvc	r6, r5, #0
  84:	2e6c656e 	cdpcs	5, 6, cr6, cr12, cr14, {3}
  88:	00000063 	andeq	r0, r0, r3, rrx
  8c:	68637300 	stmdavs	r3!, {r8, r9, ip, sp, lr}^
  90:	682e6465 	stmdavs	lr!, {r0, r2, r5, r6, sl, sp, lr}
  94:	00000000 	andeq	r0, r0, r0
  98:	02050000 	andeq	r0, r5, #0
  9c:	000080d0 	ldrdeq	r8, [r0], -r0
  a0:	02004a17 	andeq	r4, r0, #94208	; 0x17000
  a4:	a24b0104 	subge	r0, fp, #1
  a8:	0402004a 	streq	r0, [r2], #-74	; 0x4a
  ac:	2fa24b01 	svccs	0x00a24b01
  b0:	2f83832f 	svccs	0x0083832f
  b4:	302e0903 	eorcc	r0, lr, r3, lsl #18
  b8:	01000802 	tsteq	r0, r2, lsl #16
  bc:	00005901 	andeq	r5, r0, r1, lsl #18
  c0:	21000200 	mrscs	r0, R8_usr
  c4:	02000000 	andeq	r0, r0, #0
  c8:	0d0efb01 	vstreq	d15, [lr, #-4]
  cc:	01010100 	mrseq	r0, (UNDEF: 17)
  d0:	00000001 	andeq	r0, r0, r1
  d4:	01000001 	tsteq	r0, r1
  d8:	79687000 	stmdbvc	r8!, {ip, sp, lr}^
  dc:	6f6c6c41 	svcvs	0x006c6c41
  e0:	00632e63 	rsbeq	r2, r3, r3, ror #28
  e4:	00000000 	andeq	r0, r0, r0
  e8:	5c020500 	cfstr32pl	mvfx0, [r2], {-0}
  ec:	03000081 	movweq	r0, #129	; 0x81
  f0:	4c67010c 	stfmie	f0, [r7], #-48	; 0xffffffd0
  f4:	002f2f2f 	eoreq	r2, pc, pc, lsr #30
  f8:	2c010402 	cfstrscs	mvf0, [r1], {2}
  fc:	02040200 	andeq	r0, r4, #0
 100:	86064a06 	strhi	r4, [r6], -r6, lsl #20
 104:	bbf44b4b 	bllt	ffd12e38 <__bss_end+0xffd0a8a0>
 108:	da2f4c4c 	ble	bd3240 <__bss_end+0xbcaca8>
 10c:	67833083 	strvs	r3, [r3, r3, lsl #1]
 110:	6767864b 	strbvs	r8, [r7, -fp, asr #12]!
 114:	0008029f 	muleq	r8, pc, r2	; <UNPREDICTABLE>
 118:	004b0101 	subeq	r0, fp, r1, lsl #2
 11c:	00020000 	andeq	r0, r2, r0
 120:	0000001b 	andeq	r0, r0, fp, lsl r0
 124:	0efb0102 	cdpeq	1, 15, cr0, cr11, cr2, {0}
 128:	0101000d 	tsteq	r1, sp
 12c:	00000101 	andeq	r0, r0, r1, lsl #2
 130:	00000100 	andeq	r0, r0, r0, lsl #2
 134:	77680001 	strbvc	r0, [r8, -r1]!
 138:	0000632e 	andeq	r6, r0, lr, lsr #6
 13c:	00000000 	andeq	r0, r0, r0
 140:	82940205 	addshi	r0, r4, #1342177280	; 0x50000000
 144:	1c030000 	stcne	0, cr0, [r3], {-0}
 148:	67674b01 	strbvs	r4, [r7, -r1, lsl #22]!
 14c:	09036768 	stmdbeq	r3, {r3, r5, r6, r8, r9, sl, sp, lr}
 150:	4e672f9e 	mcrmi	15, 3, r2, cr7, cr14, {4}
 154:	4f51672f 	svcmi	0x0051672f
 158:	69676767 	stmdbvs	r7!, {r0, r1, r2, r5, r6, r8, r9, sl, sp, lr}^
 15c:	6a676769 	bvs	19d9f08 <__bss_end+0x19d1970>
 160:	67a06869 	strvs	r6, [r0, r9, ror #16]!
 164:	01001002 	tsteq	r0, r2
 168:	00005b01 	andeq	r5, r0, r1, lsl #22
 16c:	29000200 	stmdbcs	r0, {r9}
 170:	02000000 	andeq	r0, r0, #0
 174:	0d0efb01 	vstreq	d15, [lr, #-4]
 178:	01010100 	mrseq	r0, (UNDEF: 17)
 17c:	00000001 	andeq	r0, r0, r1
 180:	01000001 	tsteq	r0, r1
 184:	68637300 	stmdavs	r3!, {r8, r9, ip, sp, lr}^
 188:	632e6465 	teqvs	lr, #1694498816	; 0x65000000
 18c:	00000000 	andeq	r0, r0, r0
 190:	65686373 	strbvs	r6, [r8, #-883]!	; 0x373
 194:	00682e64 	rsbeq	r2, r8, r4, ror #28
 198:	00000000 	andeq	r0, r0, r0
 19c:	d0020500 	andle	r0, r2, r0, lsl #10
 1a0:	15000083 	strne	r0, [r0, #-131]	; 0x83
 1a4:	6722089f 			; <UNDEFINED> instruction: 0x6722089f
 1a8:	67d7bb4d 	ldrbvs	fp, [r7, sp, asr #22]
 1ac:	6867f367 	stmdavs	r7!, {r0, r1, r2, r5, r6, r8, r9, ip, sp, lr, pc}^
 1b0:	31133113 	tstcc	r3, r3, lsl r1
 1b4:	8383839f 	orrhi	r8, r3, #2080374786	; 0x7c000002
 1b8:	31859f67 	orrcc	r9, r5, r7, ror #30
 1bc:	4d85832f 	stcmi	3, cr8, [r5, #188]	; 0xbc
 1c0:	02314b4b 	eorseq	r4, r1, #76800	; 0x12c00
 1c4:	01010004 	tsteq	r1, r4

Disassembly of section .debug_info:

00000000 <.debug_info>:
   0:	00000054 	andeq	r0, r0, r4, asr r0
   4:	00000002 	andeq	r0, r0, r2
   8:	01040000 	mrseq	r0, (UNDEF: 4)
   c:	00000000 	andeq	r0, r0, r0
  10:	00008000 	andeq	r8, r0, r0
  14:	000080d0 	ldrdeq	r8, [r0], -r0
  18:	74636576 	strbtvc	r6, [r3], #-1398	; 0x576
  1c:	2e73726f 	cdpcs	2, 7, cr7, cr3, cr15, {3}
  20:	682f0073 	stmdavs	pc!, {r0, r1, r4, r5, r6}	; <UNPREDICTABLE>
  24:	2f656d6f 	svccs	0x00656d6f
  28:	69727461 	ldmdbvs	r2!, {r0, r5, r6, sl, ip, sp, lr}^
  2c:	2f6b6162 	svccs	0x006b6162
  30:	75636f44 	strbvc	r6, [r3, #-3908]!	; 0xf44
  34:	746e656d 	strbtvc	r6, [lr], #-1389	; 0x56d
  38:	45532f73 	ldrbmi	r2, [r3, #-3955]	; 0xf73
  3c:	736f2f41 	cmnvc	pc, #260	; 0x104
  40:	2d656970 	stclcs	9, cr6, [r5, #-448]!	; 0xfffffe40
  44:	72617473 	rsbvc	r7, r1, #1929379840	; 0x73000000
  48:	4e470074 	mcrmi	0, 2, r0, cr7, cr4, {3}
  4c:	53412055 	movtpl	r2, #4181	; 0x1055
  50:	322e3220 	eorcc	r3, lr, #2
  54:	80010032 	andhi	r0, r1, r2, lsr r0
  58:	000001ec 	andeq	r0, r0, ip, ror #3
  5c:	00140002 	andseq	r0, r4, r2
  60:	01040000 	mrseq	r0, (UNDEF: 4)
  64:	000000a8 	andeq	r0, r0, r8, lsr #1
  68:	00006501 	andeq	r6, r0, r1, lsl #10
  6c:	00015000 	andeq	r5, r1, r0
  70:	0080d000 	addeq	sp, r0, r0
  74:	00815c00 	addeq	r5, r1, r0, lsl #24
  78:	00006500 	andeq	r6, r0, r0, lsl #10
  7c:	01210200 	teqeq	r1, r0, lsl #4
  80:	02080000 	andeq	r0, r8, #0
  84:	00004d05 	andeq	r4, r0, r5, lsl #26
  88:	70730300 	rsbsvc	r0, r3, r0, lsl #6
  8c:	4d070200 	sfmmi	f0, 4, [r7, #-0]
  90:	02000000 	andeq	r0, r0, #0
  94:	6e040023 	cdpvs	0, 0, cr0, cr4, cr3, {1}
  98:	02000000 	andeq	r0, r0, #0
  9c:	00004d08 	andeq	r4, r0, r8, lsl #26
  a0:	04230200 	strteq	r0, [r3], #-512	; 0x200
  a4:	07040500 	streq	r0, [r4, -r0, lsl #10]
  a8:	0000002f 	andeq	r0, r0, pc, lsr #32
  ac:	00013806 	andeq	r3, r1, r6, lsl #16
  b0:	0b020100 	bleq	804b8 <__bss_end+0x77f20>
  b4:	00000073 	andeq	r0, r0, r3, ror r0
  b8:	00014807 	andeq	r4, r1, r7, lsl #16
  bc:	e8070000 	stmda	r7, {}	; <UNPREDICTABLE>
  c0:	01000000 	mrseq	r0, (UNDEF: 0)
  c4:	0000f007 	andeq	pc, r0, r7
  c8:	02000200 	andeq	r0, r0, #0
  cc:	00000076 	andeq	r0, r0, r6, ror r0
  d0:	d40d0218 	strle	r0, [sp], #-536	; 0x218
  d4:	04000000 	streq	r0, [r0], #-0
  d8:	000000f9 	strdeq	r0, [r0], -r9
  dc:	004d0f02 	subeq	r0, sp, r2, lsl #30
  e0:	23020000 	movwcs	r0, #8192	; 0x2000
  e4:	003c0400 	eorseq	r0, ip, r0, lsl #8
  e8:	10020000 	andne	r0, r2, r0
  ec:	00000054 	andeq	r0, r0, r4, asr r0
  f0:	04042302 	streq	r2, [r4], #-770	; 0x302
  f4:	000000dd 	ldrdeq	r0, [r0], -sp
  f8:	004d1102 	subeq	r1, sp, r2, lsl #2
  fc:	23020000 	movwcs	r0, #8192	; 0x2000
 100:	01040408 	tsteq	r4, r8, lsl #8
 104:	12020000 	andne	r0, r2, #0
 108:	0000004d 	andeq	r0, r0, sp, asr #32
 10c:	040c2302 	streq	r2, [ip], #-770	; 0x302
 110:	00000058 	andeq	r0, r0, r8, asr r0
 114:	00d41302 	sbcseq	r1, r4, r2, lsl #6
 118:	23020000 	movwcs	r0, #8192	; 0x2000
 11c:	01270410 	teqeq	r7, r0, lsl r4
 120:	14020000 	strne	r0, [r2], #-0
 124:	000000da 	ldrdeq	r0, [r0], -sl
 128:	00142302 	andseq	r2, r4, r2, lsl #6
 12c:	00730408 	rsbseq	r0, r3, r8, lsl #8
 130:	04090000 	streq	r0, [r9], #-0
 134:	8c060105 	stfhis	f0, [r6], {5}
 138:	05000000 	streq	r0, [r0, #-0]
 13c:	008a0801 	addeq	r0, sl, r1, lsl #16
 140:	02050000 	andeq	r0, r5, #0
 144:	00001205 	andeq	r1, r0, r5, lsl #4
 148:	07020500 	streq	r0, [r2, -r0, lsl #10]
 14c:	000000ca 	andeq	r0, r0, sl, asr #1
 150:	6905040a 	stmdbvs	r5, {r1, r3, sl}
 154:	0500746e 	streq	r7, [r0, #-1134]	; 0x46e
 158:	004a0508 	subeq	r0, sl, r8, lsl #10
 15c:	08050000 	stmdaeq	r5, {}	; <UNPREDICTABLE>
 160:	00002507 	andeq	r2, r0, r7, lsl #10
 164:	05040500 	streq	r0, [r4, #-1280]	; 0x500
 168:	0000004f 	andeq	r0, r0, pc, asr #32
 16c:	1c070405 	cfstrsne	mvf0, [r7], {5}
 170:	05000000 	streq	r0, [r0, #-0]
 174:	002a0704 	eoreq	r0, sl, r4, lsl #14
 178:	01050000 	mrseq	r0, (UNDEF: 5)
 17c:	00009308 	andeq	r9, r0, r8, lsl #6
 180:	06010b00 	streq	r0, [r1], -r0, lsl #22
 184:	01000000 	mrseq	r0, (UNDEF: 0)
 188:	0080d005 	addeq	sp, r0, r5
 18c:	0080f400 	addeq	pc, r0, r0, lsl #8
 190:	00000000 	andeq	r0, r0, r0
 194:	01510100 	cmpeq	r1, r0, lsl #2
 198:	b40c0000 	strlt	r0, [ip], #-0
 19c:	01000000 	mrseq	r0, (UNDEF: 0)
 1a0:	0000f806 	andeq	pc, r0, r6, lsl #16
 1a4:	74910200 	ldrvc	r0, [r1], #512	; 0x200
 1a8:	0c010b00 	stceq	11, cr0, [r1], {-0}
 1ac:	01000000 	mrseq	r0, (UNDEF: 0)
 1b0:	0080f40a 	addeq	pc, r0, sl, lsl #8
 1b4:	00811800 	addeq	r1, r1, r0, lsl #16
 1b8:	00002c00 	andeq	r2, r0, r0, lsl #24
 1bc:	01790100 	cmneq	r9, r0, lsl #2
 1c0:	b90c0000 	stmdblt	ip, {}	; <UNPREDICTABLE>
 1c4:	01000000 	mrseq	r0, (UNDEF: 0)
 1c8:	0000f80b 	andeq	pc, r0, fp, lsl #16
 1cc:	74910200 	ldrvc	r0, [r1], #512	; 0x200
 1d0:	00010d00 	andeq	r0, r1, r0, lsl #26
 1d4:	01000000 	mrseq	r0, (UNDEF: 0)
 1d8:	00f8010f 	rscseq	r0, r8, pc, lsl #2
 1dc:	81180000 	tsthi	r8, r0
 1e0:	815c0000 	cmphi	ip, r0
 1e4:	00580000 	subseq	r0, r8, r0
 1e8:	0c010000 	stceq	0, cr0, [r1], {-0}
 1ec:	0000012e 	andeq	r0, r0, lr, lsr #2
 1f0:	004d2502 	subeq	r2, sp, r2, lsl #10
 1f4:	03050000 	movweq	r0, #20480	; 0x5000
 1f8:	00008568 	andeq	r8, r0, r8, ror #10
 1fc:	0001140c 	andeq	r1, r1, ip, lsl #8
 200:	d4260200 	strtle	r0, [r6], #-512	; 0x200
 204:	05000000 	streq	r0, [r0, #-0]
 208:	00856c03 	addeq	r6, r5, r3, lsl #24
 20c:	007c0c00 	rsbseq	r0, ip, r0, lsl #24
 210:	27020000 	strcs	r0, [r2, -r0]
 214:	000000d4 	ldrdeq	r0, [r0], -r4
 218:	85700305 	ldrbhi	r0, [r0, #-773]!	; 0x305
 21c:	be0c0000 	cdplt	0, 0, cr0, cr12, cr0, {0}
 220:	02000000 	andeq	r0, r0, #0
 224:	0001d728 	andeq	sp, r1, r8, lsr #14
 228:	74030500 	strvc	r0, [r3], #-1280	; 0x500
 22c:	08000085 	stmdaeq	r0, {r0, r2, r7}
 230:	00002504 	andeq	r2, r0, r4, lsl #10
 234:	00980e00 	addseq	r0, r8, r0, lsl #28
 238:	17020000 	strne	r0, [r2, -r0]
 23c:	000000d4 	ldrdeq	r0, [r0], -r4
 240:	94030501 	strls	r0, [r3], #-1281	; 0x501
 244:	00000085 	andeq	r0, r0, r5, lsl #1
 248:	0000015e 	andeq	r0, r0, lr, asr r1
 24c:	00e50002 	rsceq	r0, r5, r2
 250:	01040000 	mrseq	r0, (UNDEF: 4)
 254:	000000a8 	andeq	r0, r0, r8, lsr #1
 258:	00017801 	andeq	r7, r1, r1, lsl #16
 25c:	00015000 	andeq	r5, r1, r0
 260:	00815c00 	addeq	r5, r1, r0, lsl #24
 264:	00829400 	addeq	r9, r2, r0, lsl #8
 268:	0000bd00 	andeq	fp, r0, r0, lsl #26
 26c:	6c660200 	sfmvs	f0, 2, [r6], #-0
 270:	03010800 	movweq	r0, #6144	; 0x1800
 274:	0000004d 	andeq	r0, r0, sp, asr #32
 278:	0001aa03 	andeq	sl, r1, r3, lsl #20
 27c:	4d040100 	stfmis	f0, [r4, #-0]
 280:	02000000 	andeq	r0, r0, #0
 284:	47030023 	strmi	r0, [r3, -r3, lsr #32]
 288:	01000002 	tsteq	r0, r2
 28c:	00005305 	andeq	r5, r0, r5, lsl #6
 290:	04230200 	strteq	r0, [r3], #-512	; 0x200
 294:	25040400 	strcs	r0, [r4, #-1024]	; 0x400
 298:	05000000 	streq	r0, [r0, #-0]
 29c:	002f0704 	eoreq	r0, pc, r4, lsl #14
 2a0:	01060000 	mrseq	r0, (UNDEF: 6)
 2a4:	000001af 	andeq	r0, r0, pc, lsr #3
 2a8:	9f010c01 	svcls	0x00010c01
 2ac:	5c000000 	stcpl	0, cr0, [r0], {-0}
 2b0:	10000081 	andne	r0, r0, r1, lsl #1
 2b4:	78000082 	stmdavc	r0, {r1, r7}
 2b8:	01000000 	mrseq	r0, (UNDEF: 0)
 2bc:	0000009f 	muleq	r0, pc, r0	; <UNPREDICTABLE>
 2c0:	00024707 	andeq	r4, r2, r7, lsl #14
 2c4:	530c0100 	movwpl	r0, #49408	; 0xc100
 2c8:	02000000 	andeq	r0, r0, #0
 2cc:	66087491 			; <UNDEFINED> instruction: 0x66087491
 2d0:	4d0e0100 	stfmis	f0, [lr, #-0]
 2d4:	01000000 	mrseq	r0, (UNDEF: 0)
 2d8:	01830954 	orreq	r0, r3, r4, asr r9
 2dc:	0e010000 	cdpeq	0, 0, cr0, cr1, cr0, {0}
 2e0:	000000a1 	andeq	r0, r0, r1, lsr #1
 2e4:	0a005501 	beq	156f0 <__bss_end+0xd158>
 2e8:	4d040404 	cfstrsmi	mvf0, [r4, #-16]
 2ec:	0b000000 	bleq	2f4 <_start-0x7d0c>
 2f0:	00019101 	andeq	r9, r1, r1, lsl #2
 2f4:	01220100 	teqeq	r2, r0, lsl #2
 2f8:	00008210 	andeq	r8, r0, r0, lsl r2
 2fc:	00008258 	andeq	r8, r0, r8, asr r2
 300:	000000a4 	andeq	r0, r0, r4, lsr #1
 304:	0000e901 	andeq	lr, r0, r1, lsl #18
 308:	74700c00 	ldrbtvc	r0, [r0], #-3072	; 0xc00
 30c:	22010072 	andcs	r0, r1, #114	; 0x72
 310:	0000009f 	muleq	r0, pc, r0	; <UNPREDICTABLE>
 314:	07749102 	ldrbeq	r9, [r4, -r2, lsl #2]!
 318:	00000247 	andeq	r0, r0, r7, asr #4
 31c:	00532201 	subseq	r2, r3, r1, lsl #4
 320:	91020000 	mrsls	r0, (UNDEF: 2)
 324:	00660870 	rsbeq	r0, r6, r0, ror r8
 328:	004d2401 	subeq	r2, sp, r1, lsl #8
 32c:	54010000 	strpl	r0, [r1], #-0
 330:	be010b00 	vmlalt.f64	d0, d1, d0
 334:	01000001 	tsteq	r0, r1
 338:	8258012c 	subshi	r0, r8, #11
 33c:	82940000 	addshi	r0, r4, #0
 340:	00d00000 	sbcseq	r0, r0, r0
 344:	20010000 	andcs	r0, r1, r0
 348:	07000001 	streq	r0, [r0, -r1]
 34c:	0000019f 	muleq	r0, pc, r1	; <UNPREDICTABLE>
 350:	01202c01 	teqeq	r0, r1, lsl #24
 354:	91020000 	mrsls	r0, (UNDEF: 2)
 358:	01d7077c 	bicseq	r0, r7, ip, ror r7
 35c:	2c010000 	stccs	0, cr0, [r1], {-0}
 360:	00000053 	andeq	r0, r0, r3, asr r0
 364:	00789102 	rsbseq	r9, r8, r2, lsl #2
 368:	01260404 	teqeq	r6, r4, lsl #8
 36c:	01050000 	mrseq	r0, (UNDEF: 5)
 370:	00009308 	andeq	r9, r0, r8, lsl #6
 374:	6f740800 	svcvs	0x00740800
 378:	08010070 	stmdaeq	r1, {r4, r5, r6}
 37c:	00000120 	andeq	r0, r0, r0, lsr #2
 380:	857c0305 	ldrbhi	r0, [ip, #-773]!	; 0x305
 384:	cc090000 	stcgt	0, cr0, [r9], {-0}
 388:	01000001 	tsteq	r0, r1
 38c:	00012009 	andeq	r2, r1, r9
 390:	80030500 	andhi	r0, r3, r0, lsl #10
 394:	0d000085 	stceq	0, cr0, [r0, #-532]	; 0xfffffdec
 398:	00000188 	andeq	r0, r0, r8, lsl #3
 39c:	004d0601 	subeq	r0, sp, r1, lsl #12
 3a0:	05010000 	streq	r0, [r1, #-0]
 3a4:	00857803 	addeq	r7, r5, r3, lsl #16
 3a8:	00b80000 	adcseq	r0, r8, r0
 3ac:	00020000 	andeq	r0, r2, r0
 3b0:	000001b5 			; <UNDEFINED> instruction: 0x000001b5
 3b4:	00a80104 	adceq	r0, r8, r4, lsl #2
 3b8:	e1010000 	mrs	r0, (UNDEF: 1)
 3bc:	50000001 	andpl	r0, r0, r1
 3c0:	94000001 	strls	r0, [r0], #-1
 3c4:	d0000082 	andle	r0, r0, r2, lsl #1
 3c8:	1a000083 	bne	5dc <_start-0x7a24>
 3cc:	02000001 	andeq	r0, r0, #1
 3d0:	00ca0702 	sbceq	r0, sl, r2, lsl #14
 3d4:	04020000 	streq	r0, [r2], #-0
 3d8:	00002f07 	andeq	r2, r0, r7, lsl #30
 3dc:	08010200 	stmdaeq	r1, {r9}
 3e0:	0000008a 	andeq	r0, r0, sl, lsl #1
 3e4:	01ed0103 	mvneq	r0, r3, lsl #2
 3e8:	1c010000 	stcne	0, cr0, [r1], {-0}
 3ec:	00008294 	muleq	r0, r4, r2
 3f0:	000082e0 	andeq	r8, r0, r0, ror #5
 3f4:	000000f0 	strdeq	r0, [r0], -r0	; <UNPREDICTABLE>
 3f8:	00006101 	andeq	r6, r0, r1, lsl #2
 3fc:	78720400 	ldmdavc	r2!, {sl}^
 400:	2c1e0100 	ldfcss	f0, [lr], {-0}
 404:	02000000 	andeq	r0, r0, #0
 408:	05007491 	streq	r7, [r0, #-1169]	; 0x491
 40c:	00020f01 	andeq	r0, r2, r1, lsl #30
 410:	e02b0100 	eor	r0, fp, r0, lsl #2
 414:	f8000082 			; <UNDEFINED> instruction: 0xf8000082
 418:	1c000082 	stcne	0, cr0, [r0], {130}	; 0x82
 41c:	01000001 	tsteq	r0, r1
 420:	01e60105 	mvneq	r0, r5, lsl #2
 424:	31010000 	mrscc	r0, (UNDEF: 1)
 428:	000082f8 	strdeq	r8, [r0], -r8	; <UNPREDICTABLE>
 42c:	00008310 	andeq	r8, r0, r0, lsl r3
 430:	0000013c 	andeq	r0, r0, ip, lsr r1
 434:	07010601 	streq	r0, [r1, -r1, lsl #12]
 438:	01000002 	tsteq	r0, r2
 43c:	0083103a 	addeq	r1, r3, sl, lsr r0
 440:	0083d000 	addeq	sp, r3, r0
 444:	00015c00 	andeq	r5, r1, r0, lsl #24
 448:	72040100 	andvc	r0, r4, #0
 44c:	3c010061 	stccc	0, cr0, [r1], {97}	; 0x61
 450:	0000002c 	andeq	r0, r0, ip, lsr #32
 454:	04749102 	ldrbteq	r9, [r4], #-258	; 0x102
 458:	01007872 	tsteq	r0, r2, ror r8
 45c:	00002c3d 	andeq	r2, r0, sp, lsr ip
 460:	70910200 	addsvc	r0, r1, r0, lsl #4
 464:	02b00000 	adcseq	r0, r0, #0
 468:	00020000 	andeq	r0, r2, r0
 46c:	00000227 	andeq	r0, r0, r7, lsr #4
 470:	00a80104 	adceq	r0, r8, r4, lsl #2
 474:	2a010000 	bcs	4047c <__bss_end+0x37ee4>
 478:	50000002 	andpl	r0, r0, r2
 47c:	d0000001 	andle	r0, r0, r1
 480:	68000083 	stmdavs	r0, {r0, r1, r7}
 484:	69000085 	stmdbvs	r0, {r0, r2, r7}
 488:	02000001 	andeq	r0, r0, #1
 48c:	00000121 	andeq	r0, r0, r1, lsr #2
 490:	4d050208 	sfmmi	f0, 4, [r5, #-32]	; 0xffffffe0
 494:	03000000 	movweq	r0, #0
 498:	02007073 	andeq	r7, r0, #115	; 0x73
 49c:	00004d07 	andeq	r4, r0, r7, lsl #26
 4a0:	00230200 	eoreq	r0, r3, r0, lsl #4
 4a4:	00006e04 	andeq	r6, r0, r4, lsl #28
 4a8:	4d080200 	sfmmi	f0, 4, [r8, #-0]
 4ac:	02000000 	andeq	r0, r0, #0
 4b0:	05000423 	streq	r0, [r0, #-1059]	; 0x423
 4b4:	002f0704 	eoreq	r0, pc, r4, lsl #14
 4b8:	38060000 	stmdacc	r6, {}	; <UNPREDICTABLE>
 4bc:	01000001 	tsteq	r0, r1
 4c0:	00730b02 	rsbseq	r0, r3, r2, lsl #22
 4c4:	48070000 	stmdami	r7, {}	; <UNPREDICTABLE>
 4c8:	00000001 	andeq	r0, r0, r1
 4cc:	0000e807 	andeq	lr, r0, r7, lsl #16
 4d0:	f0070100 			; <UNDEFINED> instruction: 0xf0070100
 4d4:	02000000 	andeq	r0, r0, #0
 4d8:	00760200 	rsbseq	r0, r6, r0, lsl #4
 4dc:	02180000 	andseq	r0, r8, #0
 4e0:	0000d40d 	andeq	sp, r0, sp, lsl #8
 4e4:	00f90400 	rscseq	r0, r9, r0, lsl #8
 4e8:	0f020000 	svceq	0x00020000
 4ec:	0000004d 	andeq	r0, r0, sp, asr #32
 4f0:	04002302 	streq	r2, [r0], #-770	; 0x302
 4f4:	0000003c 	andeq	r0, r0, ip, lsr r0
 4f8:	00541002 	subseq	r1, r4, r2
 4fc:	23020000 	movwcs	r0, #8192	; 0x2000
 500:	00dd0404 	sbcseq	r0, sp, r4, lsl #8
 504:	11020000 	mrsne	r0, (UNDEF: 2)
 508:	0000004d 	andeq	r0, r0, sp, asr #32
 50c:	04082302 	streq	r2, [r8], #-770	; 0x302
 510:	00000104 	andeq	r0, r0, r4, lsl #2
 514:	004d1202 	subeq	r1, sp, r2, lsl #4
 518:	23020000 	movwcs	r0, #8192	; 0x2000
 51c:	0058040c 	subseq	r0, r8, ip, lsl #8
 520:	13020000 	movwne	r0, #8192	; 0x2000
 524:	000000d4 	ldrdeq	r0, [r0], -r4
 528:	04102302 	ldreq	r2, [r0], #-770	; 0x302
 52c:	00000127 	andeq	r0, r0, r7, lsr #2
 530:	00da1402 	sbcseq	r1, sl, r2, lsl #8
 534:	23020000 	movwcs	r0, #8192	; 0x2000
 538:	04080014 	streq	r0, [r8], #-20
 53c:	00000073 	andeq	r0, r0, r3, ror r0
 540:	710a0409 	tstvc	sl, r9, lsl #8
 544:	02000002 	andeq	r0, r0, #2
 548:	0000e71a 	andeq	lr, r0, sl, lsl r7
 54c:	ed040800 	stc	8, cr0, [r4, #-0]
 550:	0b000000 	bleq	558 <_start-0x7aa8>
 554:	5c010c01 	stcpl	12, cr0, [r1], {1}
 558:	01000002 	tsteq	r0, r2
 55c:	83d00103 	bicshi	r0, r0, #-1073741824	; 0xc0000000
 560:	841c0000 	ldrhi	r0, [ip], #-0
 564:	01880000 	orreq	r0, r8, r0
 568:	41010000 	mrsmi	r0, (UNDEF: 1)
 56c:	0d000001 	stceq	0, cr0, [r0, #-4]
 570:	00787463 	rsbseq	r7, r8, r3, ror #8
 574:	01410301 	cmpeq	r1, r1, lsl #6
 578:	91020000 	mrsls	r0, (UNDEF: 2)
 57c:	00660d74 	rsbeq	r0, r6, r4, ror sp
 580:	00dc0301 	sbcseq	r0, ip, r1, lsl #6
 584:	91020000 	mrsls	r0, (UNDEF: 2)
 588:	02410e70 	subeq	r0, r1, #1792	; 0x700
 58c:	03010000 	movweq	r0, #4096	; 0x1000
 590:	0000004d 	andeq	r0, r0, sp, asr #32
 594:	0f6c9102 	svceq	0x006c9102
 598:	0001af01 	andeq	sl, r1, r1, lsl #30
 59c:	47050100 	strmi	r0, [r5, -r0, lsl #2]
 5a0:	01000001 	tsteq	r0, r1
 5a4:	08000010 	stmdaeq	r0, {r4}
 5a8:	00002504 	andeq	r2, r0, r4, lsl #10
 5ac:	05041100 	streq	r1, [r4, #-256]	; 0x100
 5b0:	00746e69 	rsbseq	r6, r4, r9, ror #28
 5b4:	0217010c 	andseq	r0, r7, #3
 5b8:	0b010000 	bleq	405c0 <__bss_end+0x38028>
 5bc:	00841c01 	addeq	r1, r4, r1, lsl #24
 5c0:	0084a000 	addeq	sl, r4, r0
 5c4:	0001b400 	andeq	fp, r1, r0, lsl #8
 5c8:	01ae0100 			; <UNDEFINED> instruction: 0x01ae0100
 5cc:	700d0000 	andvc	r0, sp, r0
 5d0:	01006263 	tsteq	r0, r3, ror #4
 5d4:	0000d40b 	andeq	sp, r0, fp, lsl #8
 5d8:	74910200 	ldrvc	r0, [r1], #512	; 0x200
 5dc:	0100660d 	tsteq	r0, sp, lsl #12
 5e0:	0000dc0b 	andeq	sp, r0, fp, lsl #24
 5e4:	70910200 	addsvc	r0, r1, r0, lsl #4
 5e8:	00024c0e 	andeq	r4, r2, lr, lsl #24
 5ec:	da0b0100 	ble	2c09f4 <__bss_end+0x2b845c>
 5f0:	02000000 	andeq	r0, r0, #0
 5f4:	410e6c91 			; <UNDEFINED> instruction: 0x410e6c91
 5f8:	01000002 	tsteq	r0, r2
 5fc:	00004d0b 	andeq	r4, r0, fp, lsl #26
 600:	68910200 	ldmvs	r1, {r9}
 604:	01af010f 			; <UNDEFINED> instruction: 0x01af010f
 608:	05010000 	streq	r0, [r1, #-0]
 60c:	00000147 	andeq	r0, r0, r7, asr #2
 610:	00001001 	andeq	r1, r0, r1
 614:	02650112 	rsbeq	r0, r5, #-2147483644	; 0x80000004
 618:	12010000 	andne	r0, r1, #0
 61c:	000084a0 	andeq	r8, r0, r0, lsr #9
 620:	000084a4 	andeq	r8, r0, r4, lsr #9
 624:	01007d02 	tsteq	r0, r2, lsl #26
 628:	02510112 	subseq	r0, r1, #-2147483644	; 0x80000004
 62c:	16010000 	strne	r0, [r1], -r0
 630:	000084a4 	andeq	r8, r0, r4, lsr #9
 634:	000084a8 	andeq	r8, r0, r8, lsr #9
 638:	01007d02 	tsteq	r0, r2, lsl #26
 63c:	0232010c 	eorseq	r0, r2, #3
 640:	1a010000 	bne	40648 <__bss_end+0x380b0>
 644:	0084a801 	addeq	sl, r4, r1, lsl #16
 648:	00851c00 	addeq	r1, r5, r0, lsl #24
 64c:	0001e000 	andeq	lr, r1, r0
 650:	02360100 	eorseq	r0, r6, #0
 654:	660d0000 	strvs	r0, [sp], -r0
 658:	dc1a0100 	ldfles	f0, [sl], {-0}
 65c:	02000000 	andeq	r0, r0, #0
 660:	4c0e6c91 	stcmi	12, cr6, [lr], {145}	; 0x91
 664:	01000002 	tsteq	r0, r2
 668:	0000da1a 	andeq	sp, r0, sl, lsl sl
 66c:	68910200 	ldmvs	r1, {r9}
 670:	0002410e 	andeq	r4, r2, lr, lsl #2
 674:	4d1a0100 	ldfmis	f0, [sl, #-0]
 678:	02000000 	andeq	r0, r0, #0
 67c:	70136491 	mulsvc	r3, r1, r4
 680:	01006263 	tsteq	r0, r3, ror #4
 684:	0000d41c 	andeq	sp, r0, ip, lsl r4
 688:	74910200 	ldrvc	r0, [r1], #512	; 0x200
 68c:	01af010f 			; <UNDEFINED> instruction: 0x01af010f
 690:	05010000 	streq	r0, [r1, #-0]
 694:	00000147 	andeq	r0, r0, r7, asr #2
 698:	00001001 	andeq	r1, r0, r1
 69c:	02200114 	eoreq	r0, r0, #5
 6a0:	23010000 	movwcs	r0, #4096	; 0x1000
 6a4:	00851c01 	addeq	r1, r5, r1, lsl #24
 6a8:	00856800 	addeq	r6, r5, r0, lsl #16
 6ac:	007d0200 	rsbseq	r0, sp, r0, lsl #4
 6b0:	00025d01 	andeq	r5, r2, r1, lsl #26
 6b4:	74630d00 	strbtvc	r0, [r3], #-3328	; 0xd00
 6b8:	23010078 	movwcs	r0, #4216	; 0x1078
 6bc:	00000141 	andeq	r0, r0, r1, asr #2
 6c0:	15005301 	strne	r5, [r0, #-769]	; 0x301
 6c4:	0000012e 	andeq	r0, r0, lr, lsr #2
 6c8:	004d2502 	subeq	r2, sp, r2, lsl #10
 6cc:	03050000 	movweq	r0, #20480	; 0x5000
 6d0:	00008584 	andeq	r8, r0, r4, lsl #11
 6d4:	00011415 	andeq	r1, r1, r5, lsl r4
 6d8:	d4260200 	strtle	r0, [r6], #-512	; 0x200
 6dc:	05000000 	streq	r0, [r0, #-0]
 6e0:	00858803 	addeq	r8, r5, r3, lsl #16
 6e4:	007c1500 	rsbseq	r1, ip, r0, lsl #10
 6e8:	27020000 	strcs	r0, [r2, -r0]
 6ec:	000000d4 	ldrdeq	r0, [r0], -r4
 6f0:	858c0305 	strhi	r0, [ip, #773]	; 0x305
 6f4:	be150000 	cdplt	0, 1, cr0, cr5, cr0, {0}
 6f8:	02000000 	andeq	r0, r0, #0
 6fc:	00014128 	andeq	r4, r1, r8, lsr #2
 700:	90030500 	andls	r0, r3, r0, lsl #10
 704:	16000085 	strne	r0, [r0], -r5, lsl #1
 708:	00000098 	muleq	r0, r8, r0
 70c:	00d41702 	sbcseq	r1, r4, r2, lsl #14
 710:	05010000 	streq	r0, [r1, #-0]
 714:	00859403 	addeq	r9, r5, r3, lsl #8
	...

Disassembly of section .debug_abbrev:

00000000 <.debug_abbrev>:
   0:	10001101 	andne	r1, r0, r1, lsl #2
   4:	12011106 	andne	r1, r1, #-2147483647	; 0x80000001
   8:	1b080301 	blne	200c14 <__bss_end+0x1f867c>
   c:	13082508 	movwne	r2, #34056	; 0x8508
  10:	00000005 	andeq	r0, r0, r5
  14:	25011101 	strcs	r1, [r1, #-257]	; 0x101
  18:	030b130e 	movweq	r1, #45838	; 0xb30e
  1c:	110e1b0e 	tstne	lr, lr, lsl #22
  20:	10011201 	andne	r1, r1, r1, lsl #4
  24:	02000006 	andeq	r0, r0, #6
  28:	0e030113 	mcreq	1, 0, r0, cr3, cr3, {0}
  2c:	0b3a0b0b 	bleq	e82c60 <__bss_end+0xe7a6c8>
  30:	13010b3b 	movwne	r0, #6971	; 0x1b3b
  34:	0d030000 	stceq	0, cr0, [r3, #-0]
  38:	3a080300 	bcc	200c40 <__bss_end+0x1f86a8>
  3c:	490b3b0b 	stmdbmi	fp, {r0, r1, r3, r8, r9, fp, ip, sp}
  40:	000a3813 	andeq	r3, sl, r3, lsl r8
  44:	000d0400 	andeq	r0, sp, r0, lsl #8
  48:	0b3a0e03 	bleq	e8385c <__bss_end+0xe7b2c4>
  4c:	13490b3b 	movtne	r0, #39739	; 0x9b3b
  50:	00000a38 	andeq	r0, r0, r8, lsr sl
  54:	0b002405 	bleq	9070 <__bss_end+0xad8>
  58:	030b3e0b 	movweq	r3, #48651	; 0xbe0b
  5c:	0600000e 	streq	r0, [r0], -lr
  60:	0e030104 	adfeqs	f0, f3, f4
  64:	0b3a0b0b 	bleq	e82c98 <__bss_end+0xe7a700>
  68:	13010b3b 	movwne	r0, #6971	; 0x1b3b
  6c:	28070000 	stmdacs	r7, {}	; <UNPREDICTABLE>
  70:	1c0e0300 	stcne	3, cr0, [lr], {-0}
  74:	0800000d 	stmdaeq	r0, {r0, r2, r3}
  78:	0b0b000f 	bleq	2c00bc <__bss_end+0x2b7b24>
  7c:	00001349 	andeq	r1, r0, r9, asr #6
  80:	0b000f09 	bleq	3cac <_start-0x4354>
  84:	0a00000b 	beq	b8 <_start-0x7f48>
  88:	0b0b0024 	bleq	2c0120 <__bss_end+0x2b7b88>
  8c:	08030b3e 	stmdaeq	r3, {r1, r2, r3, r4, r5, r8, r9, fp}
  90:	2e0b0000 	cdpcs	0, 0, cr0, cr11, cr0, {0}
  94:	030c3f01 	movweq	r3, #52993	; 0xcf01
  98:	3b0b3a0e 	blcc	2ce8d8 <__bss_end+0x2c6340>
  9c:	1201110b 	andne	r1, r1, #-1073741822	; 0xc0000002
  a0:	96064001 	strls	r4, [r6], -r1
  a4:	13010c42 	movwne	r0, #7234	; 0x1c42
  a8:	340c0000 	strcc	r0, [ip], #-0
  ac:	3a0e0300 	bcc	380cb4 <__bss_end+0x37871c>
  b0:	490b3b0b 	stmdbmi	fp, {r0, r1, r3, r8, r9, fp, ip, sp}
  b4:	000a0213 	andeq	r0, sl, r3, lsl r2
  b8:	002e0d00 	eoreq	r0, lr, r0, lsl #26
  bc:	0e030c3f 	mcreq	12, 0, r0, cr3, cr15, {1}
  c0:	0b3b0b3a 	bleq	ec2db0 <__bss_end+0xeba818>
  c4:	13490c27 	movtne	r0, #39975	; 0x9c27
  c8:	01120111 	tsteq	r2, r1, lsl r1
  cc:	42960640 	addsmi	r0, r6, #67108864	; 0x4000000
  d0:	0e00000c 	cdpeq	0, 0, cr0, cr0, cr12, {0}
  d4:	0e030034 	mcreq	0, 0, r0, cr3, cr4, {1}
  d8:	0b3b0b3a 	bleq	ec2dc8 <__bss_end+0xeba830>
  dc:	0c3f1349 	ldceq	3, cr1, [pc], #-292	; ffffffc0 <__bss_end+0xffff7a28>
  e0:	00000a02 	andeq	r0, r0, r2, lsl #20
  e4:	01110100 	tsteq	r1, r0, lsl #2
  e8:	0b130e25 	bleq	4c3984 <__bss_end+0x4bb3ec>
  ec:	0e1b0e03 	cdpeq	14, 1, cr0, cr11, cr3, {0}
  f0:	01120111 	tsteq	r2, r1, lsl r1
  f4:	00000610 	andeq	r0, r0, r0, lsl r6
  f8:	03011302 	movweq	r1, #4866	; 0x1302
  fc:	3a0b0b08 	bcc	2c2d24 <__bss_end+0x2ba78c>
 100:	010b3b0b 	tsteq	fp, fp, lsl #22
 104:	03000013 	movweq	r0, #19
 108:	0e03000d 	cdpeq	0, 0, cr0, cr3, cr13, {0}
 10c:	0b3b0b3a 	bleq	ec2dfc <__bss_end+0xeba864>
 110:	0a381349 	beq	e04e3c <__bss_end+0xdfc8a4>
 114:	0f040000 	svceq	0x00040000
 118:	490b0b00 	stmdbmi	fp, {r8, r9, fp}
 11c:	05000013 	streq	r0, [r0, #-19]
 120:	0b0b0024 	bleq	2c01b8 <__bss_end+0x2b7c20>
 124:	0e030b3e 	vmoveq.16	d3[0], r0
 128:	2e060000 	cdpcs	0, 0, cr0, cr6, cr0, {0}
 12c:	030c3f01 	movweq	r3, #52993	; 0xcf01
 130:	3b0b3a0e 	blcc	2ce970 <__bss_end+0x2c63d8>
 134:	490c270b 	stmdbmi	ip, {r0, r1, r3, r8, r9, sl, sp}
 138:	12011113 	andne	r1, r1, #-1073741820	; 0xc0000004
 13c:	97064001 	strls	r4, [r6, -r1]
 140:	13010c42 	movwne	r0, #7234	; 0x1c42
 144:	05070000 	streq	r0, [r7, #-0]
 148:	3a0e0300 	bcc	380d50 <__bss_end+0x3787b8>
 14c:	490b3b0b 	stmdbmi	fp, {r0, r1, r3, r8, r9, fp, ip, sp}
 150:	000a0213 	andeq	r0, sl, r3, lsl r2
 154:	00340800 	eorseq	r0, r4, r0, lsl #16
 158:	0b3a0803 	bleq	e8216c <__bss_end+0xe79bd4>
 15c:	13490b3b 	movtne	r0, #39739	; 0x9b3b
 160:	00000a02 	andeq	r0, r0, r2, lsl #20
 164:	03003409 	movweq	r3, #1033	; 0x409
 168:	3b0b3a0e 	blcc	2ce9a8 <__bss_end+0x2c6410>
 16c:	0213490b 	andseq	r4, r3, #180224	; 0x2c000
 170:	0a00000a 	beq	1a0 <_start-0x7e60>
 174:	0b0b000f 	bleq	2c01b8 <__bss_end+0x2b7c20>
 178:	2e0b0000 	cdpcs	0, 0, cr0, cr11, cr0, {0}
 17c:	030c3f01 	movweq	r3, #52993	; 0xcf01
 180:	3b0b3a0e 	blcc	2ce9c0 <__bss_end+0x2c6428>
 184:	110c270b 	tstne	ip, fp, lsl #14
 188:	40011201 	andmi	r1, r1, r1, lsl #4
 18c:	0c429706 	mcrreq	7, 0, r9, r2, cr6
 190:	00001301 	andeq	r1, r0, r1, lsl #6
 194:	0300050c 	movweq	r0, #1292	; 0x50c
 198:	3b0b3a08 	blcc	2ce9c0 <__bss_end+0x2c6428>
 19c:	0213490b 	andseq	r4, r3, #180224	; 0x2c000
 1a0:	0d00000a 	stceq	0, cr0, [r0, #-40]	; 0xffffffd8
 1a4:	0e030034 	mcreq	0, 0, r0, cr3, cr4, {1}
 1a8:	0b3b0b3a 	bleq	ec2e98 <__bss_end+0xeba900>
 1ac:	0c3f1349 	ldceq	3, cr1, [pc], #-292	; 90 <_start-0x7f70>
 1b0:	00000a02 	andeq	r0, r0, r2, lsl #20
 1b4:	01110100 	tsteq	r1, r0, lsl #2
 1b8:	0b130e25 	bleq	4c3a54 <__bss_end+0x4bb4bc>
 1bc:	0e1b0e03 	cdpeq	14, 1, cr0, cr11, cr3, {0}
 1c0:	01120111 	tsteq	r2, r1, lsl r1
 1c4:	00000610 	andeq	r0, r0, r0, lsl r6
 1c8:	0b002402 	bleq	91d8 <__bss_end+0xc40>
 1cc:	030b3e0b 	movweq	r3, #48651	; 0xbe0b
 1d0:	0300000e 	movweq	r0, #14
 1d4:	0c3f012e 	ldfeqs	f0, [pc], #-184	; 124 <_start-0x7edc>
 1d8:	0b3a0e03 	bleq	e839ec <__bss_end+0xe7b454>
 1dc:	01110b3b 	tsteq	r1, fp, lsr fp
 1e0:	06400112 			; <UNDEFINED> instruction: 0x06400112
 1e4:	010c4296 			; <UNDEFINED> instruction: 0x010c4296
 1e8:	04000013 	streq	r0, [r0], #-19
 1ec:	08030034 	stmdaeq	r3, {r2, r4, r5}
 1f0:	0b3b0b3a 	bleq	ec2ee0 <__bss_end+0xeba948>
 1f4:	0a021349 	beq	84f20 <__bss_end+0x7c988>
 1f8:	2e050000 	cdpcs	0, 0, cr0, cr5, cr0, {0}
 1fc:	030c3f00 	movweq	r3, #52992	; 0xcf00
 200:	3b0b3a0e 	blcc	2cea40 <__bss_end+0x2c64a8>
 204:	1201110b 	andne	r1, r1, #-1073741822	; 0xc0000002
 208:	96064001 	strls	r4, [r6], -r1
 20c:	00000c42 	andeq	r0, r0, r2, asr #24
 210:	3f012e06 	svccc	0x00012e06
 214:	3a0e030c 	bcc	380e4c <__bss_end+0x3788b4>
 218:	110b3b0b 	tstne	fp, fp, lsl #22
 21c:	40011201 	andmi	r1, r1, r1, lsl #4
 220:	0c429606 	mcrreq	6, 0, r9, r2, cr6
 224:	01000000 	mrseq	r0, (UNDEF: 0)
 228:	0e250111 	mcreq	1, 1, r0, cr5, cr1, {0}
 22c:	0e030b13 	vmoveq.32	d3[0], r0
 230:	01110e1b 	tsteq	r1, fp, lsl lr
 234:	06100112 			; <UNDEFINED> instruction: 0x06100112
 238:	13020000 	movwne	r0, #8192	; 0x2000
 23c:	0b0e0301 	bleq	380e48 <__bss_end+0x3788b0>
 240:	3b0b3a0b 	blcc	2cea74 <__bss_end+0x2c64dc>
 244:	0013010b 	andseq	r0, r3, fp, lsl #2
 248:	000d0300 	andeq	r0, sp, r0, lsl #6
 24c:	0b3a0803 	bleq	e82260 <__bss_end+0xe79cc8>
 250:	13490b3b 	movtne	r0, #39739	; 0x9b3b
 254:	00000a38 	andeq	r0, r0, r8, lsr sl
 258:	03000d04 	movweq	r0, #3332	; 0xd04
 25c:	3b0b3a0e 	blcc	2cea9c <__bss_end+0x2c6504>
 260:	3813490b 	ldmdacc	r3, {r0, r1, r3, r8, fp, lr}
 264:	0500000a 	streq	r0, [r0, #-10]
 268:	0b0b0024 	bleq	2c0300 <__bss_end+0x2b7d68>
 26c:	0e030b3e 	vmoveq.16	d3[0], r0
 270:	04060000 	streq	r0, [r6], #-0
 274:	0b0e0301 	bleq	380e80 <__bss_end+0x3788e8>
 278:	3b0b3a0b 	blcc	2ceaac <__bss_end+0x2c6514>
 27c:	0013010b 	andseq	r0, r3, fp, lsl #2
 280:	00280700 	eoreq	r0, r8, r0, lsl #14
 284:	0d1c0e03 	ldceq	14, cr0, [ip, #-12]
 288:	0f080000 	svceq	0x00080000
 28c:	490b0b00 	stmdbmi	fp, {r8, r9, fp}
 290:	09000013 	stmdbeq	r0, {r0, r1, r4}
 294:	0b0b000f 	bleq	2c02d8 <__bss_end+0x2b7d40>
 298:	160a0000 	strne	r0, [sl], -r0
 29c:	3a0e0300 	bcc	380ea4 <__bss_end+0x37890c>
 2a0:	490b3b0b 	stmdbmi	fp, {r0, r1, r3, r8, r9, fp, ip, sp}
 2a4:	0b000013 	bleq	2f8 <_start-0x7d08>
 2a8:	0c270015 	stceq	0, cr0, [r7], #-84	; 0xffffffac
 2ac:	2e0c0000 	cdpcs	0, 0, cr0, cr12, cr0, {0}
 2b0:	030c3f01 	movweq	r3, #52993	; 0xcf01
 2b4:	3b0b3a0e 	blcc	2ceaf4 <__bss_end+0x2c655c>
 2b8:	110c270b 	tstne	ip, fp, lsl #14
 2bc:	40011201 	andmi	r1, r1, r1, lsl #4
 2c0:	0c429606 	mcrreq	6, 0, r9, r2, cr6
 2c4:	00001301 	andeq	r1, r0, r1, lsl #6
 2c8:	0300050d 	movweq	r0, #1293	; 0x50d
 2cc:	3b0b3a08 	blcc	2ceaf4 <__bss_end+0x2c655c>
 2d0:	0213490b 	andseq	r4, r3, #180224	; 0x2c000
 2d4:	0e00000a 	cdpeq	0, 0, cr0, cr0, cr10, {0}
 2d8:	0e030005 	cdpeq	0, 0, cr0, cr3, cr5, {0}
 2dc:	0b3b0b3a 	bleq	ec2fcc <__bss_end+0xebaa34>
 2e0:	0a021349 	beq	8500c <__bss_end+0x7ca74>
 2e4:	2e0f0000 	cdpcs	0, 0, cr0, cr15, cr0, {0}
 2e8:	030c3f01 	movweq	r3, #52993	; 0xcf01
 2ec:	3b0b3a0e 	blcc	2ceb2c <__bss_end+0x2c6594>
 2f0:	3c13490b 	ldccc	9, cr4, [r3], {11}
 2f4:	1000000c 	andne	r0, r0, ip
 2f8:	00000018 	andeq	r0, r0, r8, lsl r0
 2fc:	0b002411 	bleq	9348 <__bss_end+0xdb0>
 300:	030b3e0b 	movweq	r3, #48651	; 0xbe0b
 304:	12000008 	andne	r0, r0, #8
 308:	0c3f002e 	ldceq	0, cr0, [pc], #-184	; 258 <_start-0x7da8>
 30c:	0b3a0e03 	bleq	e83b20 <__bss_end+0xe7b588>
 310:	01110b3b 	tsteq	r1, fp, lsr fp
 314:	0a400112 	beq	1000764 <__bss_end+0xff81cc>
 318:	000c4297 	muleq	ip, r7, r2
 31c:	00341300 	eorseq	r1, r4, r0, lsl #6
 320:	0b3a0803 	bleq	e82334 <__bss_end+0xe79d9c>
 324:	13490b3b 	movtne	r0, #39739	; 0x9b3b
 328:	00000a02 	andeq	r0, r0, r2, lsl #20
 32c:	3f012e14 	svccc	0x00012e14
 330:	3a0e030c 	bcc	380f68 <__bss_end+0x3789d0>
 334:	270b3b0b 	strcs	r3, [fp, -fp, lsl #22]
 338:	1201110c 	andne	r1, r1, #3
 33c:	970a4001 	strls	r4, [sl, -r1]
 340:	13010c42 	movwne	r0, #7234	; 0x1c42
 344:	34150000 	ldrcc	r0, [r5], #-0
 348:	3a0e0300 	bcc	380f50 <__bss_end+0x3789b8>
 34c:	490b3b0b 	stmdbmi	fp, {r0, r1, r3, r8, r9, fp, ip, sp}
 350:	000a0213 	andeq	r0, sl, r3, lsl r2
 354:	00341600 	eorseq	r1, r4, r0, lsl #12
 358:	0b3a0e03 	bleq	e83b6c <__bss_end+0xe7b5d4>
 35c:	13490b3b 	movtne	r0, #39739	; 0x9b3b
 360:	0a020c3f 	beq	83464 <__bss_end+0x7aecc>
 364:	Address 0x0000000000000364 is out of bounds.


Disassembly of section .debug_aranges:

00000000 <.debug_aranges>:
   0:	0000001c 	andeq	r0, r0, ip, lsl r0
   4:	00000002 	andeq	r0, r0, r2
   8:	00040000 	andeq	r0, r4, r0
   c:	00000000 	andeq	r0, r0, r0
  10:	00008000 	andeq	r8, r0, r0
  14:	000000d0 	ldrdeq	r0, [r0], -r0	; <UNPREDICTABLE>
	...
  20:	0000001c 	andeq	r0, r0, ip, lsl r0
  24:	00580002 	subseq	r0, r8, r2
  28:	00040000 	andeq	r0, r4, r0
  2c:	00000000 	andeq	r0, r0, r0
  30:	000080d0 	ldrdeq	r8, [r0], -r0
  34:	0000008c 	andeq	r0, r0, ip, lsl #1
	...
  40:	0000001c 	andeq	r0, r0, ip, lsl r0
  44:	02480002 	subeq	r0, r8, #2
  48:	00040000 	andeq	r0, r4, r0
  4c:	00000000 	andeq	r0, r0, r0
  50:	0000815c 	andeq	r8, r0, ip, asr r1
  54:	00000138 	andeq	r0, r0, r8, lsr r1
	...
  60:	0000001c 	andeq	r0, r0, ip, lsl r0
  64:	03aa0002 			; <UNDEFINED> instruction: 0x03aa0002
  68:	00040000 	andeq	r0, r4, r0
  6c:	00000000 	andeq	r0, r0, r0
  70:	00008294 	muleq	r0, r4, r2
  74:	0000013c 	andeq	r0, r0, ip, lsr r1
	...
  80:	0000001c 	andeq	r0, r0, ip, lsl r0
  84:	04660002 	strbteq	r0, [r6], #-2
  88:	00040000 	andeq	r0, r4, r0
  8c:	00000000 	andeq	r0, r0, r0
  90:	000083d0 	ldrdeq	r8, [r0], -r0
  94:	00000198 	muleq	r0, r8, r1
	...

Disassembly of section .debug_loc:

00000000 <.debug_loc>:
   0:	00000000 	andeq	r0, r0, r0
   4:	00000004 	andeq	r0, r0, r4
   8:	007d0002 	rsbseq	r0, sp, r2
   c:	00000004 	andeq	r0, r0, r4
  10:	00000008 	andeq	r0, r0, r8
  14:	047d0002 	ldrbteq	r0, [sp], #-2
  18:	00000008 	andeq	r0, r0, r8
  1c:	00000024 	andeq	r0, r0, r4, lsr #32
  20:	107d0002 	rsbsne	r0, sp, r2
	...
  2c:	00000024 	andeq	r0, r0, r4, lsr #32
  30:	00000028 	andeq	r0, r0, r8, lsr #32
  34:	007d0002 	rsbseq	r0, sp, r2
  38:	00000028 	andeq	r0, r0, r8, lsr #32
  3c:	0000002c 	andeq	r0, r0, ip, lsr #32
  40:	047d0002 	ldrbteq	r0, [sp], #-2
  44:	0000002c 	andeq	r0, r0, ip, lsr #32
  48:	00000048 	andeq	r0, r0, r8, asr #32
  4c:	107d0002 	rsbsne	r0, sp, r2
	...
  58:	00000048 	andeq	r0, r0, r8, asr #32
  5c:	0000004c 	andeq	r0, r0, ip, asr #32
  60:	007d0002 	rsbseq	r0, sp, r2
  64:	0000004c 	andeq	r0, r0, ip, asr #32
  68:	0000008c 	andeq	r0, r0, ip, lsl #1
  6c:	087d0002 	ldmdaeq	sp!, {r1}^
	...
  7c:	00000004 	andeq	r0, r0, r4
  80:	007d0002 	rsbseq	r0, sp, r2
  84:	00000004 	andeq	r0, r0, r4
  88:	00000008 	andeq	r0, r0, r8
  8c:	087d0002 	ldmdaeq	sp!, {r1}^
  90:	00000008 	andeq	r0, r0, r8
  94:	000000b4 	strheq	r0, [r0], -r4
  98:	107d0002 	rsbsne	r0, sp, r2
	...
  a4:	000000b4 	strheq	r0, [r0], -r4
  a8:	000000b8 	strheq	r0, [r0], -r8
  ac:	007d0002 	rsbseq	r0, sp, r2
  b0:	000000b8 	strheq	r0, [r0], -r8
  b4:	000000bc 	strheq	r0, [r0], -ip
  b8:	047d0002 	ldrbteq	r0, [sp], #-2
  bc:	000000bc 	strheq	r0, [r0], -ip
  c0:	000000fc 	strdeq	r0, [r0], -ip
  c4:	107d0002 	rsbsne	r0, sp, r2
	...
  d0:	000000fc 	strdeq	r0, [r0], -ip
  d4:	00000100 	andeq	r0, r0, r0, lsl #2
  d8:	007d0002 	rsbseq	r0, sp, r2
  dc:	00000100 	andeq	r0, r0, r0, lsl #2
  e0:	00000138 	andeq	r0, r0, r8, lsr r1
  e4:	087d0002 	ldmdaeq	sp!, {r1}^
	...
  f4:	00000004 	andeq	r0, r0, r4
  f8:	007d0002 	rsbseq	r0, sp, r2
  fc:	00000004 	andeq	r0, r0, r4
 100:	00000008 	andeq	r0, r0, r8
 104:	047d0002 	ldrbteq	r0, [sp], #-2
 108:	00000008 	andeq	r0, r0, r8
 10c:	0000004c 	andeq	r0, r0, ip, asr #32
 110:	107d0002 	rsbsne	r0, sp, r2
	...
 11c:	0000004c 	andeq	r0, r0, ip, asr #32
 120:	00000050 	andeq	r0, r0, r0, asr r0
 124:	007d0002 	rsbseq	r0, sp, r2
 128:	00000050 	andeq	r0, r0, r0, asr r0
 12c:	00000064 	andeq	r0, r0, r4, rrx
 130:	087d0002 	ldmdaeq	sp!, {r1}^
	...
 13c:	00000064 	andeq	r0, r0, r4, rrx
 140:	00000068 	andeq	r0, r0, r8, rrx
 144:	007d0002 	rsbseq	r0, sp, r2
 148:	00000068 	andeq	r0, r0, r8, rrx
 14c:	0000007c 	andeq	r0, r0, ip, ror r0
 150:	087d0002 	ldmdaeq	sp!, {r1}^
	...
 15c:	0000007c 	andeq	r0, r0, ip, ror r0
 160:	00000080 	andeq	r0, r0, r0, lsl #1
 164:	007d0002 	rsbseq	r0, sp, r2
 168:	00000080 	andeq	r0, r0, r0, lsl #1
 16c:	00000084 	andeq	r0, r0, r4, lsl #1
 170:	047d0002 	ldrbteq	r0, [sp], #-2
 174:	00000084 	andeq	r0, r0, r4, lsl #1
 178:	0000013c 	andeq	r0, r0, ip, lsr r1
 17c:	107d0002 	rsbsne	r0, sp, r2
	...
 18c:	00000004 	andeq	r0, r0, r4
 190:	007d0002 	rsbseq	r0, sp, r2
 194:	00000004 	andeq	r0, r0, r4
 198:	00000008 	andeq	r0, r0, r8
 19c:	047d0002 	ldrbteq	r0, [sp], #-2
 1a0:	00000008 	andeq	r0, r0, r8
 1a4:	0000004c 	andeq	r0, r0, ip, asr #32
 1a8:	187d0002 	ldmdane	sp!, {r1}^
	...
 1b4:	0000004c 	andeq	r0, r0, ip, asr #32
 1b8:	00000050 	andeq	r0, r0, r0, asr r0
 1bc:	007d0002 	rsbseq	r0, sp, r2
 1c0:	00000050 	andeq	r0, r0, r0, asr r0
 1c4:	00000054 	andeq	r0, r0, r4, asr r0
 1c8:	047d0002 	ldrbteq	r0, [sp], #-2
 1cc:	00000054 	andeq	r0, r0, r4, asr r0
 1d0:	000000d0 	ldrdeq	r0, [r0], -r0	; <UNPREDICTABLE>
 1d4:	187d0002 	ldmdane	sp!, {r1}^
	...
 1e0:	000000d8 	ldrdeq	r0, [r0], -r8
 1e4:	000000dc 	ldrdeq	r0, [r0], -ip
 1e8:	007d0002 	rsbseq	r0, sp, r2
 1ec:	000000dc 	ldrdeq	r0, [r0], -ip
 1f0:	000000e0 	andeq	r0, r0, r0, ror #1
 1f4:	047d0002 	ldrbteq	r0, [sp], #-2
 1f8:	000000e0 	andeq	r0, r0, r0, ror #1
 1fc:	0000014c 	andeq	r0, r0, ip, asr #2
 200:	207d0002 	rsbscs	r0, sp, r2
	...

Disassembly of section .debug_str:

00000000 <.debug_str>:
   0:	69616d6b 	stmdbvs	r1!, {r0, r1, r3, r5, r6, r8, sl, fp, sp, lr}^
   4:	7566006e 	strbvc	r0, [r6, #-110]!	; 0x6e
   8:	0041636e 	subeq	r6, r1, lr, ror #6
   c:	636e7566 	cmnvs	lr, #427819008	; 0x19800000
  10:	68730042 	ldmdavs	r3!, {r1, r6}^
  14:	2074726f 	rsbscs	r7, r4, pc, ror #4
  18:	00746e69 	rsbseq	r6, r4, r9, ror #28
  1c:	657a6973 	ldrbvs	r6, [sl, #-2419]!	; 0x973
  20:	65707974 	ldrbvs	r7, [r0, #-2420]!	; 0x974
  24:	6e6f6c00 	cdpvs	12, 6, cr6, cr15, cr0, {0}
  28:	6f6c2067 	svcvs	0x006c2067
  2c:	7520676e 	strvc	r6, [r0, #-1902]!	; 0x76e
  30:	6769736e 	strbvs	r7, [r9, -lr, ror #6]!
  34:	2064656e 	rsbcs	r6, r4, lr, ror #10
  38:	00746e69 	rsbseq	r6, r4, r9, ror #28
  3c:	74617473 	strbtvc	r7, [r1], #-1139	; 0x473
  40:	72705f65 	rsbsvc	r5, r0, #404	; 0x194
  44:	7365636f 	cmnvc	r5, #-1140850687	; 0xbc000001
  48:	6f6c0073 	svcvs	0x006c0073
  4c:	6c20676e 	stcvs	7, cr6, [r0], #-440	; 0xfffffe48
  50:	20676e6f 	rsbcs	r6, r7, pc, ror #28
  54:	00746e69 	rsbseq	r6, r4, r9, ror #28
  58:	7478656e 	ldrbtvc	r6, [r8], #-1390	; 0x56e
  5c:	6f72705f 	svcvs	0x0072705f
  60:	73736563 	cmnvc	r3, #415236096	; 0x18c00000
  64:	72656b00 	rsbvc	r6, r5, #0
  68:	2e6c656e 	cdpcs	5, 6, cr6, cr12, cr14, {3}
  6c:	64610063 	strbtvs	r0, [r1], #-99	; 0x63
  70:	73736572 	cmnvc	r3, #478150656	; 0x1c800000
  74:	63700065 	cmnvs	r0, #101	; 0x65
  78:	00735f62 	rsbseq	r5, r3, r2, ror #30
  7c:	73726966 	cmnvc	r2, #1671168	; 0x198000
  80:	72705f74 	rsbsvc	r5, r0, #464	; 0x1d0
  84:	7365636f 	cmnvc	r5, #-1140850687	; 0xbc000001
  88:	6e750073 	mrcvs	0, 3, r0, cr5, cr3, {3}
  8c:	6e676973 	mcrvs	9, 3, r6, cr7, cr3, {3}
  90:	63206465 	teqvs	r0, #1694498816	; 0x65000000
  94:	00726168 	rsbseq	r6, r2, r8, ror #2
  98:	72727563 	rsbsvc	r7, r2, #415236096	; 0x18c00000
  9c:	5f746e65 	svcpl	0x00746e65
  a0:	636f7270 	cmnvs	pc, #7
  a4:	00737365 	rsbseq	r7, r3, r5, ror #6
  a8:	20554e47 	subscs	r4, r5, r7, asr #28
  ac:	2e342043 	cdpcs	0, 3, cr2, cr4, cr3, {2}
  b0:	00312e37 	eorseq	r2, r1, r7, lsr lr
  b4:	41747063 	cmnmi	r4, r3, rrx
  b8:	74706300 	ldrbtvc	r6, [r0], #-768	; 0x300
  bc:	75630042 	strbvc	r0, [r3, #-66]!	; 0x42
  c0:	6e657272 	mcrvs	2, 3, r7, cr5, cr2, {3}
  c4:	74635f74 	strbtvc	r5, [r3], #-3956	; 0xf74
  c8:	68730078 	ldmdavs	r3!, {r3, r4, r5, r6}^
  cc:	2074726f 	rsbscs	r7, r4, pc, ror #4
  d0:	69736e75 	ldmdbvs	r3!, {r0, r2, r4, r5, r6, r9, sl, fp, sp, lr}^
  d4:	64656e67 	strbtvs	r6, [r5], #-3687	; 0xe67
  d8:	746e6920 	strbtvc	r6, [lr], #-2336	; 0x920
  dc:	5f707300 	svcpl	0x00707300
  e0:	636f7270 	cmnvs	pc, #7
  e4:	00737365 	rsbseq	r7, r3, r5, ror #6
  e8:	6b726f77 	blvs	1c9becc <__bss_end+0x1c93934>
  ec:	00676e69 	rsbeq	r6, r7, r9, ror #28
  f0:	65656c73 	strbvs	r6, [r5, #-3187]!	; 0xc73
  f4:	676e6970 			; <UNDEFINED> instruction: 0x676e6970
  f8:	5f646900 	svcpl	0x00646900
  fc:	636f7270 	cmnvs	pc, #7
 100:	00737365 	rsbseq	r7, r3, r5, ror #6
 104:	65726461 	ldrbvs	r6, [r2, #-1121]!	; 0x461
 108:	5f657373 	svcpl	0x00657373
 10c:	636f7270 	cmnvs	pc, #7
 110:	00737365 	rsbseq	r7, r3, r5, ror #6
 114:	7473616c 	ldrbtvc	r6, [r3], #-364	; 0x16c
 118:	6f72705f 	svcvs	0x0072705f
 11c:	73736563 	cmnvc	r3, #415236096	; 0x18c00000
 120:	78746300 	ldmdavc	r4!, {r8, r9, sp, lr}^
 124:	6100735f 	tstvs	r0, pc, asr r3
 128:	5f736772 	svcpl	0x00736772
 12c:	64690066 	strbtvs	r0, [r9], #-102	; 0x66
 130:	636f7270 	cmnvs	pc, #7
 134:	00737365 	rsbseq	r7, r3, r5, ror #6
 138:	636f7270 	cmnvs	pc, #7
 13c:	5f737365 	svcpl	0x00737365
 140:	74617473 	strbtvc	r7, [r1], #-1139	; 0x473
 144:	00735f65 	rsbseq	r5, r3, r5, ror #30
 148:	74696177 	strbtvc	r6, [r9], #-375	; 0x177
 14c:	00676e69 	rsbeq	r6, r7, r9, ror #28
 150:	6d6f682f 	stclvs	8, cr6, [pc, #-188]!	; 9c <_start-0x7f64>
 154:	74612f65 	strbtvc	r2, [r1], #-3941	; 0xf65
 158:	61626972 	smcvs	9874	; 0x2692
 15c:	6f442f6b 	svcvs	0x00442f6b
 160:	656d7563 	strbvs	r7, [sp, #-1379]!	; 0x563
 164:	2f73746e 	svccs	0x0073746e
 168:	2f414553 	svccs	0x00414553
 16c:	6970736f 	ldmdbvs	r0!, {r0, r1, r2, r3, r5, r6, r8, r9, ip, sp, lr}^
 170:	74732d65 	ldrbtvc	r2, [r3], #-3429	; 0xd65
 174:	00747261 	rsbseq	r7, r4, r1, ror #4
 178:	41796870 	cmnmi	r9, r0, ror r8
 17c:	636f6c6c 	cmnvs	pc, #27648	; 0x6c00
 180:	7000632e 	andvc	r6, r0, lr, lsr #6
 184:	00766572 	rsbseq	r6, r6, r2, ror r5
 188:	65657266 	strbvs	r7, [r5, #-614]!	; 0x266
 18c:	7473696c 	ldrbtvc	r6, [r3], #-2412	; 0x96c
 190:	79687000 	stmdbvc	r8!, {ip, sp, lr}^
 194:	6f6c6c41 	svcvs	0x006c6c41
 198:	72665f63 	rsbvc	r5, r6, #396	; 0x18c
 19c:	68006565 	stmdavs	r0, {r0, r2, r5, r6, r8, sl, sp, lr}
 1a0:	5f706165 	svcpl	0x00706165
 1a4:	72617473 	rsbvc	r7, r1, #1929379840	; 0x73000000
 1a8:	656e0074 	strbvs	r0, [lr, #-116]!	; 0x74
 1ac:	70007478 	andvc	r7, r0, r8, ror r4
 1b0:	6c417968 	mcrrvs	9, 6, r7, r1, cr8
 1b4:	5f636f6c 	svcpl	0x00636f6c
 1b8:	6f6c6c61 	svcvs	0x006c6c61
 1bc:	68700063 	ldmdavs	r0!, {r0, r1, r5, r6}^
 1c0:	6c6c4179 	stfvse	f4, [ip], #-484	; 0xfffffe1c
 1c4:	695f636f 	ldmdbvs	pc, {r0, r1, r2, r3, r5, r6, r8, r9, sp, lr}^	; <UNPREDICTABLE>
 1c8:	0074696e 	rsbseq	r6, r4, lr, ror #18
 1cc:	70616568 	rsbvc	r6, r1, r8, ror #10
 1d0:	6d696c5f 	stclvs	12, cr6, [r9, #-380]!	; 0xfffffe84
 1d4:	68007469 	stmdavs	r0, {r0, r3, r5, r6, sl, ip, sp, lr}
 1d8:	5f706165 	svcpl	0x00706165
 1dc:	657a6973 	ldrbvs	r6, [sl, #-2419]!	; 0x973
 1e0:	2e776800 	cdpcs	8, 7, cr6, cr7, cr0, {0}
 1e4:	656c0063 	strbvs	r0, [ip, #-99]!	; 0x63
 1e8:	6e6f5f64 	cdpvs	15, 6, cr5, cr15, cr4, {3}
 1ec:	74657300 	strbtvc	r7, [r5], #-768	; 0x300
 1f0:	6369745f 	cmnvs	r9, #1593835520	; 0x5f000000
 1f4:	6e615f6b 	cdpvs	15, 6, cr5, cr1, cr11, {3}
 1f8:	6e655f64 	cdpvs	15, 6, cr5, cr5, cr4, {3}
 1fc:	656c6261 	strbvs	r6, [ip, #-609]!	; 0x261
 200:	6d69745f 	cfstrdvs	mvd7, [r9, #-380]!	; 0xfffffe84
 204:	69007265 	stmdbvs	r0, {r0, r2, r5, r6, r9, ip, sp, lr}
 208:	5f74696e 	svcpl	0x0074696e
 20c:	6c007768 	stcvs	7, cr7, [r0], {104}	; 0x68
 210:	6f5f6465 	svcvs	0x005f6465
 214:	69006666 	stmdbvs	r0, {r1, r2, r5, r6, r9, sl, sp, lr}
 218:	5f74696e 	svcpl	0x0074696e
 21c:	00626370 	rsbeq	r6, r2, r0, ror r3
 220:	74697773 	strbtvc	r7, [r9], #-1907	; 0x773
 224:	745f6863 	ldrbvc	r6, [pc], #-2147	; 22c <_start-0x7dd4>
 228:	6373006f 	cmnvs	r3, #111	; 0x6f
 22c:	2e646568 	cdpcs	5, 6, cr6, cr4, cr8, {3}
 230:	72630063 	rsbvc	r0, r3, #99	; 0x63
 234:	65746165 	ldrbvs	r6, [r4, #-357]!	; 0x165
 238:	6f72705f 	svcvs	0x0072705f
 23c:	73736563 	cmnvc	r3, #415236096	; 0x18c00000
 240:	61747300 	cmnvs	r4, r0, lsl #6
 244:	735f6b63 	cmpvc	pc, #101376	; 0x18c00
 248:	00657a69 	rsbeq	r7, r5, r9, ror #20
 24c:	73677261 	cmnvc	r7, #268435462	; 0x10000006
 250:	78746300 	ldmdavc	r4!, {r8, r9, sp, lr}^
 254:	6977735f 	ldmdbvs	r7!, {r0, r1, r2, r3, r4, r6, r8, r9, ip, sp, lr}^
 258:	00686374 	rsbeq	r6, r8, r4, ror r3
 25c:	74696e69 	strbtvc	r6, [r9], #-3689	; 0xe69
 260:	7874635f 	ldmdavc	r4!, {r0, r1, r2, r3, r4, r6, r8, r9, sp, lr}^
 264:	61747300 	cmnvs	r4, r0, lsl #6
 268:	735f7472 	cmpvc	pc, #1912602624	; 0x72000000
 26c:	64656863 	strbtvs	r6, [r5], #-2147	; 0x863
 270:	6e756600 	cdpvs	6, 7, cr6, cr5, cr0, {0}
 274:	00745f63 	rsbseq	r5, r4, r3, ror #30

Disassembly of section .debug_frame:

00000000 <.debug_frame>:
   0:	0000000c 	andeq	r0, r0, ip
   4:	ffffffff 			; <UNDEFINED> instruction: 0xffffffff
   8:	7c020001 	stcvc	0, cr0, [r2], {1}
   c:	000d0c0e 	andeq	r0, sp, lr, lsl #24
  10:	00000014 	andeq	r0, r0, r4, lsl r0
  14:	00000000 	andeq	r0, r0, r0
  18:	000080d0 	ldrdeq	r8, [r0], -r0
  1c:	00000024 	andeq	r0, r0, r4, lsr #32
  20:	8e040e42 	cdphi	14, 0, cr0, cr4, cr2, {2}
  24:	100e4201 	andne	r4, lr, r1, lsl #4
  28:	00000014 	andeq	r0, r0, r4, lsl r0
  2c:	00000000 	andeq	r0, r0, r0
  30:	000080f4 	strdeq	r8, [r0], -r4
  34:	00000024 	andeq	r0, r0, r4, lsr #32
  38:	8e040e42 	cdphi	14, 0, cr0, cr4, cr2, {2}
  3c:	100e4201 	andne	r4, lr, r1, lsl #4
  40:	00000014 	andeq	r0, r0, r4, lsl r0
  44:	00000000 	andeq	r0, r0, r0
  48:	00008118 	andeq	r8, r0, r8, lsl r1
  4c:	00000044 	andeq	r0, r0, r4, asr #32
  50:	83080e42 	movwhi	r0, #36418	; 0x8e42
  54:	00018e02 	andeq	r8, r1, r2, lsl #28
  58:	0000000c 	andeq	r0, r0, ip
  5c:	ffffffff 			; <UNDEFINED> instruction: 0xffffffff
  60:	7c020001 	stcvc	0, cr0, [r2], {1}
  64:	000d0c0e 	andeq	r0, sp, lr, lsl #24
  68:	00000018 	andeq	r0, r0, r8, lsl r0
  6c:	00000058 	andeq	r0, r0, r8, asr r0
  70:	0000815c 	andeq	r8, r0, ip, asr r1
  74:	000000b4 	strheq	r0, [r0], -r4
  78:	84080e42 	strhi	r0, [r8], #-3650	; 0xe42
  7c:	42018502 	andmi	r8, r1, #8388608	; 0x800000
  80:	0000100e 	andeq	r1, r0, lr
  84:	00000014 	andeq	r0, r0, r4, lsl r0
  88:	00000058 	andeq	r0, r0, r8, asr r0
  8c:	00008210 	andeq	r8, r0, r0, lsl r2
  90:	00000048 	andeq	r0, r0, r8, asr #32
  94:	84040e42 	strhi	r0, [r4], #-3650	; 0xe42
  98:	100e4201 	andne	r4, lr, r1, lsl #4
  9c:	00000010 	andeq	r0, r0, r0, lsl r0
  a0:	00000058 	andeq	r0, r0, r8, asr r0
  a4:	00008258 	andeq	r8, r0, r8, asr r2
  a8:	0000003c 	andeq	r0, r0, ip, lsr r0
  ac:	00080e42 	andeq	r0, r8, r2, asr #28
  b0:	0000000c 	andeq	r0, r0, ip
  b4:	ffffffff 			; <UNDEFINED> instruction: 0xffffffff
  b8:	7c020001 	stcvc	0, cr0, [r2], {1}
  bc:	000d0c0e 	andeq	r0, sp, lr, lsl #24
  c0:	00000014 	andeq	r0, r0, r4, lsl r0
  c4:	000000b0 	strheq	r0, [r0], -r0	; <UNPREDICTABLE>
  c8:	00008294 	muleq	r0, r4, r2
  cc:	0000004c 	andeq	r0, r0, ip, asr #32
  d0:	8e040e42 	cdphi	14, 0, cr0, cr4, cr2, {2}
  d4:	100e4201 	andne	r4, lr, r1, lsl #4
  d8:	00000014 	andeq	r0, r0, r4, lsl r0
  dc:	000000b0 	strheq	r0, [r0], -r0	; <UNPREDICTABLE>
  e0:	000082e0 	andeq	r8, r0, r0, ror #5
  e4:	00000018 	andeq	r0, r0, r8, lsl r0
  e8:	83080e42 	movwhi	r0, #36418	; 0x8e42
  ec:	00018e02 	andeq	r8, r1, r2, lsl #28
  f0:	00000014 	andeq	r0, r0, r4, lsl r0
  f4:	000000b0 	strheq	r0, [r0], -r0	; <UNPREDICTABLE>
  f8:	000082f8 	strdeq	r8, [r0], -r8	; <UNPREDICTABLE>
  fc:	00000018 	andeq	r0, r0, r8, lsl r0
 100:	83080e42 	movwhi	r0, #36418	; 0x8e42
 104:	00018e02 	andeq	r8, r1, r2, lsl #28
 108:	00000014 	andeq	r0, r0, r4, lsl r0
 10c:	000000b0 	strheq	r0, [r0], -r0	; <UNPREDICTABLE>
 110:	00008310 	andeq	r8, r0, r0, lsl r3
 114:	000000c0 	andeq	r0, r0, r0, asr #1
 118:	8e040e42 	cdphi	14, 0, cr0, cr4, cr2, {2}
 11c:	100e4201 	andne	r4, lr, r1, lsl #4
 120:	0000000c 	andeq	r0, r0, ip
 124:	ffffffff 			; <UNDEFINED> instruction: 0xffffffff
 128:	7c020001 	stcvc	0, cr0, [r2], {1}
 12c:	000d0c0e 	andeq	r0, sp, lr, lsl #24
 130:	00000014 	andeq	r0, r0, r4, lsl r0
 134:	00000120 	andeq	r0, r0, r0, lsr #2
 138:	000083d0 	ldrdeq	r8, [r0], -r0
 13c:	0000004c 	andeq	r0, r0, ip, asr #32
 140:	8e040e42 	cdphi	14, 0, cr0, cr4, cr2, {2}
 144:	180e4201 	stmdane	lr, {r0, r9, lr}
 148:	00000014 	andeq	r0, r0, r4, lsl r0
 14c:	00000120 	andeq	r0, r0, r0, lsr #2
 150:	0000841c 	andeq	r8, r0, ip, lsl r4
 154:	00000084 	andeq	r0, r0, r4, lsl #1
 158:	8e040e42 	cdphi	14, 0, cr0, cr4, cr2, {2}
 15c:	180e4201 	stmdane	lr, {r0, r9, lr}
 160:	0000000c 	andeq	r0, r0, ip
 164:	00000120 	andeq	r0, r0, r0, lsr #2
 168:	000084a0 	andeq	r8, r0, r0, lsr #9
 16c:	00000004 	andeq	r0, r0, r4
 170:	0000000c 	andeq	r0, r0, ip
 174:	00000120 	andeq	r0, r0, r0, lsr #2
 178:	000084a4 	andeq	r8, r0, r4, lsr #9
 17c:	00000004 	andeq	r0, r0, r4
 180:	00000014 	andeq	r0, r0, r4, lsl r0
 184:	00000120 	andeq	r0, r0, r0, lsr #2
 188:	000084a8 	andeq	r8, r0, r8, lsr #9
 18c:	00000074 	andeq	r0, r0, r4, ror r0
 190:	8e040e42 	cdphi	14, 0, cr0, cr4, cr2, {2}
 194:	200e4201 	andcs	r4, lr, r1, lsl #4
 198:	0000000c 	andeq	r0, r0, ip
 19c:	00000120 	andeq	r0, r0, r0, lsr #2
 1a0:	0000851c 	andeq	r8, r0, ip, lsl r5
 1a4:	0000004c 	andeq	r0, r0, ip, asr #32
